---
triple:          'arm64-apple-darwin'
binary-path:     './build/game'
relocations:
  - { offsetInCU: 0xA098, offset: 0xA098, size: 0x8, addend: 0x0, symName: __ZNSt3__124__put_character_sequenceB8ue170006IcNS_11char_traitsIcEEEERNS_13basic_ostreamIT_T0_EES7_PKS4_m, symObjAddr: 0x4A9C, symBinAddr: 0x1000065E0, symSize: 0x1EC }
  - { offsetInCU: 0xCAF0, offset: 0xCAF0, size: 0x8, addend: 0x0, symName: __ZNSt3__1lsB8ue170006INS_11char_traitsIcEEEERNS_13basic_ostreamIcT_EES6_PKc, symObjAddr: 0xB34, symBinAddr: 0x100002678, symSize: 0x48 }
  - { offsetInCU: 0xCB36, offset: 0xCB36, size: 0x8, addend: 0x0, symName: __ZNSt3__14endlB8ue170006IcNS_11char_traitsIcEEEERNS_13basic_ostreamIT_T0_EES7_, symObjAddr: 0xBA8, symBinAddr: 0x1000026EC, symSize: 0x58 }
  - { offsetInCU: 0xCB76, offset: 0xCB76, size: 0x8, addend: 0x0, symName: __ZNSt3__1plB8ue170006IcNS_11char_traitsIcEENS_9allocatorIcEEEENS_12basic_stringIT_T0_T1_EEPKS6_OS9_, symObjAddr: 0x104C, symBinAddr: 0x100002B90, symSize: 0x44 }
  - { offsetInCU: 0xCBCE, offset: 0xCBCE, size: 0x8, addend: 0x0, symName: __ZNSt3__1eqB8ue170006IcNS_11char_traitsIcEENS_9allocatorIcEEEEbRKNS_12basic_stringIT_T0_T1_EEPKS6_, symObjAddr: 0x1264, symBinAddr: 0x100002DA8, symSize: 0xAC }
  - { offsetInCU: 0xCC35, offset: 0xCC35, size: 0x8, addend: 0x0, symName: __ZNSt3__1neB8ue170006IPP5EnemyEEbRKNS_11__wrap_iterIT_EES8_, symObjAddr: 0x2C74, symBinAddr: 0x1000047B8, symSize: 0x34 }
  - { offsetInCU: 0xCC78, offset: 0xCC78, size: 0x8, addend: 0x0, symName: __ZNSt3__1eqB8ue170006IPP5EnemyEEbRKNS_11__wrap_iterIT_EES8_, symObjAddr: 0x31B8, symBinAddr: 0x100004CFC, symSize: 0x48 }
  - { offsetInCU: 0xCCBB, offset: 0xCCBB, size: 0x8, addend: 0x0, symName: __ZNSt3__112__to_addressB8ue170006I5LevelEEPT_S3_, symObjAddr: 0x35F4, symBinAddr: 0x100005138, symSize: 0x14 }
  - { offsetInCU: 0xCCF0, offset: 0xCCF0, size: 0x8, addend: 0x0, symName: __ZNSt3__119__libcpp_deallocateB8ue170006EPvmm, symObjAddr: 0x36B8, symBinAddr: 0x1000051FC, symSize: 0x60 }
  - { offsetInCU: 0xCD55, offset: 0xCD55, size: 0x8, addend: 0x0, symName: __ZNSt3__124__is_overaligned_for_newB8ue170006Em, symObjAddr: 0x3718, symBinAddr: 0x10000525C, symSize: 0x20 }
  - { offsetInCU: 0xCD83, offset: 0xCD83, size: 0x8, addend: 0x0, symName: __ZNSt3__127__do_deallocate_handle_sizeB8ue170006IJSt11align_val_tEEEvPvmDpT_, symObjAddr: 0x3738, symBinAddr: 0x10000527C, symSize: 0x30 }
  - { offsetInCU: 0xCDD6, offset: 0xCDD6, size: 0x8, addend: 0x0, symName: __ZNSt3__127__do_deallocate_handle_sizeB8ue170006IJEEEvPvmDpT_, symObjAddr: 0x3768, symBinAddr: 0x1000052AC, symSize: 0x28 }
  - { offsetInCU: 0xCE14, offset: 0xCE14, size: 0x8, addend: 0x0, symName: __ZNSt3__124__libcpp_operator_deleteB8ue170006IJPvSt11align_val_tEEEvDpT_, symObjAddr: 0x3790, symBinAddr: 0x1000052D4, symSize: 0x2C }
  - { offsetInCU: 0xCE5D, offset: 0xCE5D, size: 0x8, addend: 0x0, symName: __ZNSt3__124__libcpp_operator_deleteB8ue170006IJPvEEEvDpT_, symObjAddr: 0x37BC, symBinAddr: 0x100005300, symSize: 0x24 }
  - { offsetInCU: 0xCE92, offset: 0xCE92, size: 0x8, addend: 0x0, symName: __ZNSt3__112__to_addressB8ue170006IP5EnemyEEPT_S4_, symObjAddr: 0x3FC4, symBinAddr: 0x100005B08, symSize: 0x14 }
  - { offsetInCU: 0xCEC7, offset: 0xCEC7, size: 0x8, addend: 0x0, symName: __ZNSt3__112__to_addressB8ue170006IP10GameObjectEEPT_S4_, symObjAddr: 0x4468, symBinAddr: 0x100005FAC, symSize: 0x14 }
  - { offsetInCU: 0xCEFC, offset: 0xCEFC, size: 0x8, addend: 0x0, symName: __ZNSt3__112__to_addressB8ue170006I6CircleEEPT_S3_, symObjAddr: 0x4950, symBinAddr: 0x100006494, symSize: 0x14 }
  - { offsetInCU: 0xCF31, offset: 0xCF31, size: 0x8, addend: 0x0, symName: __ZNSt3__116__pad_and_outputB8ue170006IcNS_11char_traitsIcEEEENS_19ostreambuf_iteratorIT_T0_EES6_PKS4_S8_S8_RNS_8ios_baseES4_, symObjAddr: 0x4CD8, symBinAddr: 0x10000681C, symSize: 0x240 }
  - { offsetInCU: 0xD000, offset: 0xD000, size: 0x8, addend: 0x0, symName: __ZNSt3__112__to_addressB8ue170006IcEEPT_S2_, symObjAddr: 0x5240, symBinAddr: 0x100006D84, symSize: 0x14 }
  - { offsetInCU: 0xD068, offset: 0xD068, size: 0x8, addend: 0x0, symName: __ZNSt3__19use_facetB8ue170006INS_5ctypeIcEEEERKT_RKNS_6localeE, symObjAddr: 0x54F8, symBinAddr: 0x10000703C, symSize: 0x2C }
  - { offsetInCU: 0xD535, offset: 0xD535, size: 0x8, addend: 0x0, symName: __ZNSt3__118__constexpr_strlenB8ue170006EPKc, symObjAddr: 0x5590, symBinAddr: 0x1000070D4, symSize: 0x24 }
  - { offsetInCU: 0xD561, offset: 0xD561, size: 0x8, addend: 0x0, symName: __ZNSt3__112__to_addressB8ue170006IKcEEPT_S3_, symObjAddr: 0x56A0, symBinAddr: 0x1000071E4, symSize: 0x14 }
  - { offsetInCU: 0xD5C9, offset: 0xD5C9, size: 0x8, addend: 0x0, symName: __ZNSt3__122__make_exception_guardB8ue170006INS_6vectorI6CircleNS_9allocatorIS2_EEE16__destroy_vectorEEENS_28__exception_guard_exceptionsIT_EES8_, symObjAddr: 0x5AC8, symBinAddr: 0x10000760C, symSize: 0x40 }
  - { offsetInCU: 0xD5FE, offset: 0xD5FE, size: 0x8, addend: 0x0, symName: __ZNSt3__119__allocate_at_leastB8ue170006INS_9allocatorI6CircleEEEENS_19__allocation_resultINS_16allocator_traitsIT_E7pointerEEERS6_m, symObjAddr: 0x5D64, symBinAddr: 0x1000078A8, symSize: 0x40 }
  - { offsetInCU: 0xD641, offset: 0xD641, size: 0x8, addend: 0x0, symName: __ZNSt3__13minB8ue170006ImEERKT_S3_S3_, symObjAddr: 0x5E94, symBinAddr: 0x1000079D8, symSize: 0x2C }
  - { offsetInCU: 0xD86E, offset: 0xD86E, size: 0x8, addend: 0x0, symName: __ZNSt3__13minB8ue170006ImNS_6__lessIvvEEEERKT_S5_S5_T0_, symObjAddr: 0x5EF8, symBinAddr: 0x100007A3C, symSize: 0x54 }
  - { offsetInCU: 0xD90D, offset: 0xD90D, size: 0x8, addend: 0x0, symName: __ZNSt3__120__throw_length_errorB8ue170006EPKc, symObjAddr: 0x5FA0, symBinAddr: 0x100007AE4, symSize: 0x64 }
  - { offsetInCU: 0xD937, offset: 0xD937, size: 0x8, addend: 0x0, symName: __ZNSt3__117__libcpp_allocateB8ue170006Emm, symObjAddr: 0x6114, symBinAddr: 0x100007C58, symSize: 0x60 }
  - { offsetInCU: 0xD991, offset: 0xD991, size: 0x8, addend: 0x0, symName: __ZNSt3__121__libcpp_operator_newB8ue170006IJmSt11align_val_tEEEPvDpT_, symObjAddr: 0x6174, symBinAddr: 0x100007CB8, symSize: 0x2C }
  - { offsetInCU: 0xD9DE, offset: 0xD9DE, size: 0x8, addend: 0x0, symName: __ZNSt3__121__libcpp_operator_newB8ue170006IJmEEEPvDpT_, symObjAddr: 0x61A0, symBinAddr: 0x100007CE4, symSize: 0x24 }
  - { offsetInCU: 0xDA17, offset: 0xDA17, size: 0x8, addend: 0x0, symName: __ZNSt3__130__uninitialized_allocator_copyB8ue170006INS_9allocatorI6CircleEEPS2_S4_S4_EET2_RT_T0_T1_S5_, symObjAddr: 0x6238, symBinAddr: 0x100007D7C, symSize: 0x80 }
  - { offsetInCU: 0xDAB4, offset: 0xDAB4, size: 0x8, addend: 0x0, symName: __ZNSt3__114__unwrap_rangeB8ue170006IP6CircleS2_EENS_4pairIT0_S4_EET_S6_, symObjAddr: 0x6330, symBinAddr: 0x100007E74, symSize: 0x60 }
  - { offsetInCU: 0xDB00, offset: 0xDB00, size: 0x8, addend: 0x0, symName: __ZNSt3__135__uninitialized_allocator_copy_implB8ue170006INS_9allocatorI6CircleEES2_S2_S2_LPv0EEEPT2_RT_PT0_SA_S6_, symObjAddr: 0x6390, symBinAddr: 0x100007ED4, symSize: 0x38 }
  - { offsetInCU: 0xDB81, offset: 0xDB81, size: 0x8, addend: 0x0, symName: __ZNSt3__113__unwrap_iterB8ue170006IP6CircleNS_18__unwrap_iter_implIS2_Lb1EEELi0EEEDTclsrT0_8__unwrapclsr3stdE7declvalIT_EEEES6_, symObjAddr: 0x63C8, symBinAddr: 0x100007F0C, symSize: 0x24 }
  - { offsetInCU: 0xDBC5, offset: 0xDBC5, size: 0x8, addend: 0x0, symName: __ZNSt3__113__rewrap_iterB8ue170006IP6CircleS2_NS_18__unwrap_iter_implIS2_Lb1EEEEET_S5_T0_, symObjAddr: 0x63EC, symBinAddr: 0x100007F30, symSize: 0x3C }
  - { offsetInCU: 0xDC1A, offset: 0xDC1A, size: 0x8, addend: 0x0, symName: __ZNSt3__19make_pairB8ue170006IP6CircleS2_EENS_4pairINS_18__unwrap_ref_decayIT_E4typeENS4_IT0_E4typeEEEOS5_OS8_, symObjAddr: 0x6428, symBinAddr: 0x100007F6C, symSize: 0x38 }
  - { offsetInCU: 0xDD6C, offset: 0xDD6C, size: 0x8, addend: 0x0, symName: __ZNSt3__14copyB8ue170006IP6CircleS2_EET0_T_S4_S3_, symObjAddr: 0x64D0, symBinAddr: 0x100008014, symSize: 0x40 }
  - { offsetInCU: 0xDDC6, offset: 0xDDC6, size: 0x8, addend: 0x0, symName: __ZNSt3__16__copyB8ue170006INS_17_ClassicAlgPolicyEP6CircleS3_S3_EENS_4pairIT0_T2_EES5_T1_S6_, symObjAddr: 0x6510, symBinAddr: 0x100008054, symSize: 0x44 }
  - { offsetInCU: 0xDE32, offset: 0xDE32, size: 0x8, addend: 0x0, symName: __ZNSt3__123__dispatch_copy_or_moveB8ue170006INS_17_ClassicAlgPolicyENS_11__copy_loopIS1_EENS_14__copy_trivialEP6CircleS6_S6_EENS_4pairIT2_T4_EES8_T3_S9_, symObjAddr: 0x6554, symBinAddr: 0x100008098, symSize: 0x44 }
  - { offsetInCU: 0xDEB0, offset: 0xDEB0, size: 0x8, addend: 0x0, symName: __ZNSt3__121__unwrap_and_dispatchB8ue170006INS_10__overloadINS_11__copy_loopINS_17_ClassicAlgPolicyEEENS_14__copy_trivialEEEP6CircleS8_S8_Li0EEENS_4pairIT0_T2_EESA_T1_SB_, symObjAddr: 0x6598, symBinAddr: 0x1000080DC, symSize: 0xB4 }
  - { offsetInCU: 0xDF84, offset: 0xDF84, size: 0x8, addend: 0x0, symName: __ZNSt3__114__rewrap_rangeB8ue170006IP6CircleS2_EET_S3_T0_, symObjAddr: 0x6694, symBinAddr: 0x1000081D8, symSize: 0x2C }
  - { offsetInCU: 0xDFD0, offset: 0xDFD0, size: 0x8, addend: 0x0, symName: __ZNSt3__119__copy_trivial_implB8ue170006I6CircleS1_EENS_4pairIPT_PT0_EES4_S4_S6_, symObjAddr: 0x66C0, symBinAddr: 0x100008204, symSize: 0x88 }
  - { offsetInCU: 0xE038, offset: 0xE038, size: 0x8, addend: 0x0, symName: __ZNSt3__119__constexpr_memmoveB8ue170006I6CircleS1_Li0EEEPT_S3_PT0_NS_15__element_countE, symObjAddr: 0x6748, symBinAddr: 0x10000828C, symSize: 0x68 }
  - { offsetInCU: 0xE0A6, offset: 0xE0A6, size: 0x8, addend: 0x0, symName: __ZNSt3__19make_pairB8ue170006IRP6CircleS2_EENS_4pairINS_18__unwrap_ref_decayIT_E4typeENS5_IT0_E4typeEEEOS6_OS9_, symObjAddr: 0x67B0, symBinAddr: 0x1000082F4, symSize: 0x38 }
  - { offsetInCU: 0xE148, offset: 0xE148, size: 0x8, addend: 0x0, symName: __ZNSt3__13maxB8ue170006ImEERKT_S3_S3_, symObjAddr: 0x6D3C, symBinAddr: 0x100008880, symSize: 0x2C }
  - { offsetInCU: 0xE18B, offset: 0xE18B, size: 0x8, addend: 0x0, symName: __ZNSt3__13maxB8ue170006ImNS_6__lessIvvEEEERKT_S5_S5_T0_, symObjAddr: 0x6D68, symBinAddr: 0x1000088AC, symSize: 0x54 }
  - { offsetInCU: 0xE1E5, offset: 0xE1E5, size: 0x8, addend: 0x0, symName: __ZNSt3__142__uninitialized_allocator_move_if_noexceptB8ue170006INS_9allocatorI6CircleEENS_16reverse_iteratorIPS2_EES6_S2_vEET1_RT_T0_SA_S7_, symObjAddr: 0x6FF4, symBinAddr: 0x100008B38, symSize: 0x78 }
  - { offsetInCU: 0xE262, offset: 0xE262, size: 0x8, addend: 0x0, symName: __ZNSt3__14swapB8ue170006IP6CircleEENS_9enable_ifIXaasr21is_move_constructibleIT_EE5valuesr18is_move_assignableIS4_EE5valueEvE4typeERS4_S7_, symObjAddr: 0x70B8, symBinAddr: 0x100008BFC, symSize: 0x3C }
  - { offsetInCU: 0xE2B3, offset: 0xE2B3, size: 0x8, addend: 0x0, symName: __ZNSt3__14moveB8ue170006INS_16reverse_iteratorIP6CircleEES4_EET0_T_S6_S5_, symObjAddr: 0x70F4, symBinAddr: 0x100008C38, symSize: 0x78 }
  - { offsetInCU: 0xE30D, offset: 0xE30D, size: 0x8, addend: 0x0, symName: __ZNSt3__16__moveB8ue170006INS_17_ClassicAlgPolicyENS_16reverse_iteratorIP6CircleEES5_S5_EENS_4pairIT0_T2_EES7_T1_S8_, symObjAddr: 0x716C, symBinAddr: 0x100008CB0, symSize: 0x64 }
  - { offsetInCU: 0xE379, offset: 0xE379, size: 0x8, addend: 0x0, symName: __ZNSt3__123__dispatch_copy_or_moveB8ue170006INS_17_ClassicAlgPolicyENS_11__move_loopIS1_EENS_14__move_trivialENS_16reverse_iteratorIP6CircleEES8_S8_EENS_4pairIT2_T4_EESA_T3_SB_, symObjAddr: 0x71D0, symBinAddr: 0x100008D14, symSize: 0x64 }
  - { offsetInCU: 0xE3F7, offset: 0xE3F7, size: 0x8, addend: 0x0, symName: __ZNSt3__121__unwrap_and_dispatchB8ue170006INS_10__overloadINS_11__move_loopINS_17_ClassicAlgPolicyEEENS_14__move_trivialEEENS_16reverse_iteratorIP6CircleEESA_SA_Li0EEENS_4pairIT0_T2_EESC_T1_SD_, symObjAddr: 0x7234, symBinAddr: 0x100008D78, symSize: 0x12C }
  - { offsetInCU: 0xE487, offset: 0xE487, size: 0x8, addend: 0x0, symName: __ZNSt3__114__unwrap_rangeB8ue170006INS_16reverse_iteratorIP6CircleEES4_EENS_4pairIT0_S6_EET_S8_, symObjAddr: 0x7360, symBinAddr: 0x100008EA4, symSize: 0x84 }
  - { offsetInCU: 0xE641, offset: 0xE641, size: 0x8, addend: 0x0, symName: __ZNSt3__113__unwrap_iterB8ue170006INS_16reverse_iteratorIP6CircleEENS_18__unwrap_iter_implIS4_Lb0EEELi0EEEDTclsrT0_8__unwrapclsr3stdE7declvalIT_EEEES8_, symObjAddr: 0x748C, symBinAddr: 0x100008FD0, symSize: 0x44 }
  - { offsetInCU: 0xE685, offset: 0xE685, size: 0x8, addend: 0x0, symName: __ZNSt3__19make_pairB8ue170006INS_16reverse_iteratorIP6CircleEES4_EENS_4pairINS_18__unwrap_ref_decayIT_E4typeENS6_IT0_E4typeEEEOS7_OSA_, symObjAddr: 0x74D0, symBinAddr: 0x100009014, symSize: 0x38 }
  - { offsetInCU: 0xE6D4, offset: 0xE6D4, size: 0x8, addend: 0x0, symName: __ZNSt3__114__rewrap_rangeB8ue170006INS_16reverse_iteratorIP6CircleEES4_EET_S5_T0_, symObjAddr: 0x7508, symBinAddr: 0x10000904C, symSize: 0x5C }
  - { offsetInCU: 0xE720, offset: 0xE720, size: 0x8, addend: 0x0, symName: __ZNSt3__113__rewrap_iterB8ue170006INS_16reverse_iteratorIP6CircleEES4_NS_18__unwrap_iter_implIS4_Lb0EEEEET_S7_T0_, symObjAddr: 0x7564, symBinAddr: 0x1000090A8, symSize: 0x74 }
  - { offsetInCU: 0xE775, offset: 0xE775, size: 0x8, addend: 0x0, symName: __ZNSt3__1neB8ue170006IP6CircleS2_EEbRKNS_16reverse_iteratorIT_EERKNS3_IT0_EE, symObjAddr: 0x75D8, symBinAddr: 0x10000911C, symSize: 0x48 }
  - { offsetInCU: 0xE8A6, offset: 0xE8A6, size: 0x8, addend: 0x0, symName: __ZNSt3__119__allocate_at_leastB8ue170006INS_9allocatorIP5EnemyEEEENS_19__allocation_resultINS_16allocator_traitsIT_E7pointerEEERS7_m, symObjAddr: 0x80B0, symBinAddr: 0x100009BF4, symSize: 0x40 }
  - { offsetInCU: 0xE8E9, offset: 0xE8E9, size: 0x8, addend: 0x0, symName: __ZNSt3__142__uninitialized_allocator_move_if_noexceptB8ue170006INS_9allocatorIP5EnemyEENS_16reverse_iteratorIPS3_EES7_S3_vEET1_RT_T0_SB_S8_, symObjAddr: 0x8264, symBinAddr: 0x100009DA8, symSize: 0x78 }
  - { offsetInCU: 0xE966, offset: 0xE966, size: 0x8, addend: 0x0, symName: __ZNSt3__14swapB8ue170006IPP5EnemyEENS_9enable_ifIXaasr21is_move_constructibleIT_EE5valuesr18is_move_assignableIS5_EE5valueEvE4typeERS5_S8_, symObjAddr: 0x8328, symBinAddr: 0x100009E6C, symSize: 0x3C }
  - { offsetInCU: 0xE9B7, offset: 0xE9B7, size: 0x8, addend: 0x0, symName: __ZNSt3__14moveB8ue170006INS_16reverse_iteratorIPP5EnemyEES5_EET0_T_S7_S6_, symObjAddr: 0x8410, symBinAddr: 0x100009F54, symSize: 0x78 }
  - { offsetInCU: 0xEA11, offset: 0xEA11, size: 0x8, addend: 0x0, symName: __ZNSt3__16__moveB8ue170006INS_17_ClassicAlgPolicyENS_16reverse_iteratorIPP5EnemyEES6_S6_EENS_4pairIT0_T2_EES8_T1_S9_, symObjAddr: 0x8488, symBinAddr: 0x100009FCC, symSize: 0x64 }
  - { offsetInCU: 0xEA7D, offset: 0xEA7D, size: 0x8, addend: 0x0, symName: __ZNSt3__123__dispatch_copy_or_moveB8ue170006INS_17_ClassicAlgPolicyENS_11__move_loopIS1_EENS_14__move_trivialENS_16reverse_iteratorIPP5EnemyEES9_S9_EENS_4pairIT2_T4_EESB_T3_SC_, symObjAddr: 0x84EC, symBinAddr: 0x10000A030, symSize: 0x64 }
  - { offsetInCU: 0xEAFB, offset: 0xEAFB, size: 0x8, addend: 0x0, symName: __ZNSt3__121__unwrap_and_dispatchB8ue170006INS_10__overloadINS_11__move_loopINS_17_ClassicAlgPolicyEEENS_14__move_trivialEEENS_16reverse_iteratorIPP5EnemyEESB_SB_Li0EEENS_4pairIT0_T2_EESD_T1_SE_, symObjAddr: 0x8550, symBinAddr: 0x10000A094, symSize: 0x12C }
  - { offsetInCU: 0xEB8B, offset: 0xEB8B, size: 0x8, addend: 0x0, symName: __ZNSt3__114__unwrap_rangeB8ue170006INS_16reverse_iteratorIPP5EnemyEES5_EENS_4pairIT0_S7_EET_S9_, symObjAddr: 0x867C, symBinAddr: 0x10000A1C0, symSize: 0x84 }
  - { offsetInCU: 0xECAB, offset: 0xECAB, size: 0x8, addend: 0x0, symName: __ZNSt3__113__unwrap_iterB8ue170006INS_16reverse_iteratorIPP5EnemyEENS_18__unwrap_iter_implIS5_Lb0EEELi0EEEDTclsrT0_8__unwrapclsr3stdE7declvalIT_EEEES9_, symObjAddr: 0x87A0, symBinAddr: 0x10000A2E4, symSize: 0x44 }
  - { offsetInCU: 0xECEF, offset: 0xECEF, size: 0x8, addend: 0x0, symName: __ZNSt3__19make_pairB8ue170006INS_16reverse_iteratorIPP5EnemyEES5_EENS_4pairINS_18__unwrap_ref_decayIT_E4typeENS7_IT0_E4typeEEEOS8_OSB_, symObjAddr: 0x87E4, symBinAddr: 0x10000A328, symSize: 0x38 }
  - { offsetInCU: 0xED3E, offset: 0xED3E, size: 0x8, addend: 0x0, symName: __ZNSt3__114__rewrap_rangeB8ue170006INS_16reverse_iteratorIPP5EnemyEES5_EET_S6_T0_, symObjAddr: 0x881C, symBinAddr: 0x10000A360, symSize: 0x5C }
  - { offsetInCU: 0xED8A, offset: 0xED8A, size: 0x8, addend: 0x0, symName: __ZNSt3__113__rewrap_iterB8ue170006INS_16reverse_iteratorIPP5EnemyEES5_NS_18__unwrap_iter_implIS5_Lb0EEEEET_S8_T0_, symObjAddr: 0x8878, symBinAddr: 0x10000A3BC, symSize: 0x74 }
  - { offsetInCU: 0xEDDF, offset: 0xEDDF, size: 0x8, addend: 0x0, symName: __ZNSt3__1neB8ue170006IPP5EnemyS3_EEbRKNS_16reverse_iteratorIT_EERKNS4_IT0_EE, symObjAddr: 0x88EC, symBinAddr: 0x10000A430, symSize: 0x48 }
  - { offsetInCU: 0xEE97, offset: 0xEE97, size: 0x8, addend: 0x0, symName: __ZNSt3__122__make_exception_guardB8ue170006INS_6vectorI4FishNS_9allocatorIS2_EEE16__destroy_vectorEEENS_28__exception_guard_exceptionsIT_EES8_, symObjAddr: 0x8FAC, symBinAddr: 0x10000AAF0, symSize: 0x40 }
  - { offsetInCU: 0xEECC, offset: 0xEECC, size: 0x8, addend: 0x0, symName: __ZNSt3__119__allocate_at_leastB8ue170006INS_9allocatorI4FishEEEENS_19__allocation_resultINS_16allocator_traitsIT_E7pointerEEERS6_m, symObjAddr: 0x93BC, symBinAddr: 0x10000AF00, symSize: 0x40 }
  - { offsetInCU: 0xEF0F, offset: 0xEF0F, size: 0x8, addend: 0x0, symName: __ZNSt3__112__to_addressB8ue170006I4FishEEPT_S3_, symObjAddr: 0x970C, symBinAddr: 0x10000B250, symSize: 0x14 }
  - { offsetInCU: 0xEF44, offset: 0xEF44, size: 0x8, addend: 0x0, symName: __ZNSt3__130__uninitialized_allocator_copyB8ue170006INS_9allocatorI4FishEEPKS2_S5_PS2_EET2_RT_T0_T1_S7_, symObjAddr: 0x97BC, symBinAddr: 0x10000B300, symSize: 0x80 }
  - { offsetInCU: 0xEFE1, offset: 0xEFE1, size: 0x8, addend: 0x0, symName: __ZNSt3__114__unwrap_rangeB8ue170006IPK4FishS3_EENS_4pairIT0_S5_EET_S7_, symObjAddr: 0x98B4, symBinAddr: 0x10000B3F8, symSize: 0x60 }
  - { offsetInCU: 0xF02D, offset: 0xF02D, size: 0x8, addend: 0x0, symName: __ZNSt3__135__uninitialized_allocator_copy_implB8ue170006INS_9allocatorI4FishEEPKS2_S5_PS2_EET2_RT_T0_T1_S7_, symObjAddr: 0x9914, symBinAddr: 0x10000B458, symSize: 0xF4 }
  - { offsetInCU: 0xF0CB, offset: 0xF0CB, size: 0x8, addend: 0x0, symName: __ZNSt3__113__unwrap_iterB8ue170006IP4FishNS_18__unwrap_iter_implIS2_Lb1EEELi0EEEDTclsrT0_8__unwrapclsr3stdE7declvalIT_EEEES6_, symObjAddr: 0x9A08, symBinAddr: 0x10000B54C, symSize: 0x24 }
  - { offsetInCU: 0xF10F, offset: 0xF10F, size: 0x8, addend: 0x0, symName: __ZNSt3__113__rewrap_iterB8ue170006IP4FishS2_NS_18__unwrap_iter_implIS2_Lb1EEEEET_S5_T0_, symObjAddr: 0x9A2C, symBinAddr: 0x10000B570, symSize: 0x3C }
  - { offsetInCU: 0xF164, offset: 0xF164, size: 0x8, addend: 0x0, symName: __ZNSt3__19make_pairB8ue170006IPK4FishS3_EENS_4pairINS_18__unwrap_ref_decayIT_E4typeENS5_IT0_E4typeEEEOS6_OS9_, symObjAddr: 0x9A68, symBinAddr: 0x10000B5AC, symSize: 0x38 }
  - { offsetInCU: 0xF1B3, offset: 0xF1B3, size: 0x8, addend: 0x0, symName: __ZNSt3__113__unwrap_iterB8ue170006IPK4FishNS_18__unwrap_iter_implIS3_Lb1EEELi0EEEDTclsrT0_8__unwrapclsr3stdE7declvalIT_EEEES7_, symObjAddr: 0x9AA0, symBinAddr: 0x10000B5E4, symSize: 0x24 }
  - { offsetInCU: 0xF31E, offset: 0xF31E, size: 0x8, addend: 0x0, symName: __ZNSt3__112__to_addressB8ue170006IK4FishEEPT_S4_, symObjAddr: 0x9B58, symBinAddr: 0x10000B69C, symSize: 0x14 }
  - { offsetInCU: 0xF353, offset: 0xF353, size: 0x8, addend: 0x0, symName: __ZNSt3__122__make_exception_guardB8ue170006INS_29_AllocatorDestroyRangeReverseINS_9allocatorI4FishEEPS3_EEEENS_28__exception_guard_exceptionsIT_EES8_, symObjAddr: 0x9B6C, symBinAddr: 0x10000B6B0, symSize: 0x4C }
  - { offsetInCU: 0xF389, offset: 0xF389, size: 0x8, addend: 0x0, symName: __ZNSt3__119__allocator_destroyB8ue170006INS_9allocatorI4FishEENS_16reverse_iteratorIPS2_EES6_EEvRT_T0_T1_, symObjAddr: 0x9DFC, symBinAddr: 0x10000B940, symSize: 0x70 }
  - { offsetInCU: 0xF3EC, offset: 0xF3EC, size: 0x8, addend: 0x0, symName: __ZNSt3__1neB8ue170006IP4FishS2_EEbRKNS_16reverse_iteratorIT_EERKNS3_IT0_EE, symObjAddr: 0x9EA0, symBinAddr: 0x10000B9E4, symSize: 0x48 }
  - { offsetInCU: 0xF438, offset: 0xF438, size: 0x8, addend: 0x0, symName: __ZNSt3__112__to_addressB8ue170006INS_16reverse_iteratorIP4FishEEvEEu7__decayIDTclsr19__to_address_helperIT_EE6__callclsr3stdE7declvalIRKS5_EEEEES7_, symObjAddr: 0x9F14, symBinAddr: 0x10000BA58, symSize: 0x24 }
  - { offsetInCU: 0xF4EA, offset: 0xF4EA, size: 0x8, addend: 0x0, symName: __ZNSt3__130__uninitialized_allocator_copyB8ue170006INS_9allocatorI4FishEEPS2_S4_S4_EET2_RT_T0_T1_S5_, symObjAddr: 0xA680, symBinAddr: 0x10000C1C4, symSize: 0x80 }
  - { offsetInCU: 0xF587, offset: 0xF587, size: 0x8, addend: 0x0, symName: __ZNSt3__114__unwrap_rangeB8ue170006IP4FishS2_EENS_4pairIT0_S4_EET_S6_, symObjAddr: 0xA700, symBinAddr: 0x10000C244, symSize: 0x60 }
  - { offsetInCU: 0xF5D3, offset: 0xF5D3, size: 0x8, addend: 0x0, symName: __ZNSt3__135__uninitialized_allocator_copy_implB8ue170006INS_9allocatorI4FishEEPS2_S4_S4_EET2_RT_T0_T1_S5_, symObjAddr: 0xA760, symBinAddr: 0x10000C2A4, symSize: 0xF4 }
  - { offsetInCU: 0xF671, offset: 0xF671, size: 0x8, addend: 0x0, symName: __ZNSt3__19make_pairB8ue170006IP4FishS2_EENS_4pairINS_18__unwrap_ref_decayIT_E4typeENS4_IT0_E4typeEEEOS5_OS8_, symObjAddr: 0xA854, symBinAddr: 0x10000C398, symSize: 0x38 }
  - { offsetInCU: 0xF794, offset: 0xF794, size: 0x8, addend: 0x0, symName: __ZNSt3__119__allocate_at_leastB8ue170006INS_9allocatorI5LevelEEEENS_19__allocation_resultINS_16allocator_traitsIT_E7pointerEEERS6_m, symObjAddr: 0xB12C, symBinAddr: 0x10000CC70, symSize: 0x40 }
  - { offsetInCU: 0xF7D7, offset: 0xF7D7, size: 0x8, addend: 0x0, symName: __ZNSt3__142__uninitialized_allocator_move_if_noexceptB8ue170006INS_9allocatorI5LevelEENS_16reverse_iteratorIPS2_EES6_S6_EET2_RT_T0_T1_S7_, symObjAddr: 0xB2E0, symBinAddr: 0x10000CE24, symSize: 0x12C }
  - { offsetInCU: 0xF877, offset: 0xF877, size: 0x8, addend: 0x0, symName: __ZNSt3__14swapB8ue170006IP5LevelEENS_9enable_ifIXaasr21is_move_constructibleIT_EE5valuesr18is_move_assignableIS4_EE5valueEvE4typeERS4_S7_, symObjAddr: 0xB458, symBinAddr: 0x10000CF9C, symSize: 0x3C }
  - { offsetInCU: 0xF8C8, offset: 0xF8C8, size: 0x8, addend: 0x0, symName: __ZNSt3__122__make_exception_guardB8ue170006INS_29_AllocatorDestroyRangeReverseINS_9allocatorI5LevelEENS_16reverse_iteratorIPS3_EEEEEENS_28__exception_guard_exceptionsIT_EESA_, symObjAddr: 0xB540, symBinAddr: 0x10000D084, symSize: 0x4C }
  - { offsetInCU: 0xF8FE, offset: 0xF8FE, size: 0x8, addend: 0x0, symName: __ZNSt3__1neB8ue170006IP5LevelS2_EEbRKNS_16reverse_iteratorIT_EERKNS3_IT0_EE, symObjAddr: 0xB5D0, symBinAddr: 0x10000D114, symSize: 0x48 }
  - { offsetInCU: 0xF94A, offset: 0xF94A, size: 0x8, addend: 0x0, symName: __ZNSt3__112__to_addressB8ue170006INS_16reverse_iteratorIP5LevelEEvEEu7__decayIDTclsr19__to_address_helperIT_EE6__callclsr3stdE7declvalIRKS5_EEEEES7_, symObjAddr: 0xB64C, symBinAddr: 0x10000D190, symSize: 0x24 }
  - { offsetInCU: 0xF9A9, offset: 0xF9A9, size: 0x8, addend: 0x0, symName: __ZNSt3__119__allocator_destroyB8ue170006INS_9allocatorI5LevelEENS_16reverse_iteratorINS4_IPS2_EEEES7_EEvRT_T0_T1_, symObjAddr: 0xB92C, symBinAddr: 0x10000D470, symSize: 0x70 }
  - { offsetInCU: 0xFA0E, offset: 0xFA0E, size: 0x8, addend: 0x0, symName: __ZNSt3__1neB8ue170006INS_16reverse_iteratorIP5LevelEES4_EEbRKNS1_IT_EERKNS1_IT0_EE, symObjAddr: 0xB9D8, symBinAddr: 0x10000D51C, symSize: 0x60 }
  - { offsetInCU: 0xFA5A, offset: 0xFA5A, size: 0x8, addend: 0x0, symName: __ZNSt3__112__to_addressB8ue170006INS_16reverse_iteratorINS1_IP5LevelEEEEvEEu7__decayIDTclsr19__to_address_helperIT_EE6__callclsr3stdE7declvalIRKS6_EEEEES8_, symObjAddr: 0xBA38, symBinAddr: 0x10000D57C, symSize: 0x24 }
  - { offsetInCU: 0xFFDB, offset: 0xFFDB, size: 0x8, addend: 0x0, symName: __ZSt28__throw_bad_array_new_lengthB8ue170006v, symObjAddr: 0x60E0, symBinAddr: 0x100007C24, symSize: 0x34 }
  - { offsetInCU: 0x1157F, offset: 0x1157F, size: 0x8, addend: 0x0, symName: __ZNSt3__16vectorI6CircleNS_9allocatorIS1_EEE26__swap_out_circular_bufferERNS_14__split_bufferIS1_RS3_EE, symObjAddr: 0x6C00, symBinAddr: 0x100008744, symSize: 0x110 }
  - { offsetInCU: 0x115D6, offset: 0x115D6, size: 0x8, addend: 0x0, symName: __ZNSt3__16vectorIP5EnemyNS_9allocatorIS2_EEE26__swap_out_circular_bufferERNS_14__split_bufferIS2_RS4_EE, symObjAddr: 0x7D50, symBinAddr: 0x100009894, symSize: 0x110 }
  - { offsetInCU: 0x11687, offset: 0x11687, size: 0x8, addend: 0x0, symName: __ZNSt3__16vectorI5LevelNS_9allocatorIS1_EEE26__swap_out_circular_bufferERNS_14__split_bufferIS1_RS3_EE, symObjAddr: 0xADCC, symBinAddr: 0x10000C910, symSize: 0x110 }
  - { offsetInCU: 0x14C3F, offset: 0x14C3F, size: 0x8, addend: 0x0, symName: __ZN4GameC2Ev, symObjAddr: 0x0, symBinAddr: 0x100001B44, symSize: 0xAC }
  - { offsetInCU: 0x14C6B, offset: 0x14C6B, size: 0x8, addend: 0x0, symName: __ZNSt3__16vectorIP5EnemyNS_9allocatorIS2_EEEC1B8ue170006Ev, symObjAddr: 0xAC, symBinAddr: 0x100001BF0, symSize: 0x2C }
  - { offsetInCU: 0x14C95, offset: 0x14C95, size: 0x8, addend: 0x0, symName: __ZNSt3__16vectorIP10GameObjectNS_9allocatorIS2_EEEC1B8ue170006Ev, symObjAddr: 0xD8, symBinAddr: 0x100001C1C, symSize: 0x2C }
  - { offsetInCU: 0x14CBE, offset: 0x14CBE, size: 0x8, addend: 0x0, symName: __Z10initLevelsv, symObjAddr: 0x104, symBinAddr: 0x100001C48, symSize: 0x65C }
  - { offsetInCU: 0x14D3F, offset: 0x14D3F, size: 0x8, addend: 0x0, symName: __ZNSt3__16vectorI6CircleNS_9allocatorIS1_EEEC1B8ue170006Ev, symObjAddr: 0x760, symBinAddr: 0x1000022A4, symSize: 0x2C }
  - { offsetInCU: 0x14D69, offset: 0x14D69, size: 0x8, addend: 0x0, symName: __ZNSt3__16vectorIP10GameObjectNS_9allocatorIS2_EEED1B8ue170006Ev, symObjAddr: 0x78C, symBinAddr: 0x1000022D0, symSize: 0x2C }
  - { offsetInCU: 0x14D93, offset: 0x14D93, size: 0x8, addend: 0x0, symName: __ZNSt3__16vectorIP5EnemyNS_9allocatorIS2_EEED1B8ue170006Ev, symObjAddr: 0x7B8, symBinAddr: 0x1000022FC, symSize: 0x2C }
  - { offsetInCU: 0x14DBD, offset: 0x14DBD, size: 0x8, addend: 0x0, symName: __ZN4GameC1Ev, symObjAddr: 0x7E4, symBinAddr: 0x100002328, symSize: 0x2C }
  - { offsetInCU: 0x14DE9, offset: 0x14DE9, size: 0x8, addend: 0x0, symName: __ZN4GameD2Ev, symObjAddr: 0x810, symBinAddr: 0x100002354, symSize: 0x54 }
  - { offsetInCU: 0x14E14, offset: 0x14E14, size: 0x8, addend: 0x0, symName: __ZNSt3__16vectorI6CircleNS_9allocatorIS1_EEED1B8ue170006Ev, symObjAddr: 0x864, symBinAddr: 0x1000023A8, symSize: 0x2C }
  - { offsetInCU: 0x14E3E, offset: 0x14E3E, size: 0x8, addend: 0x0, symName: __ZNSt3__16vectorI5LevelNS_9allocatorIS1_EEED1B8ue170006Ev, symObjAddr: 0x890, symBinAddr: 0x1000023D4, symSize: 0x2C }
  - { offsetInCU: 0x14E68, offset: 0x14E68, size: 0x8, addend: 0x0, symName: __ZN4GameD1Ev, symObjAddr: 0x8BC, symBinAddr: 0x100002400, symSize: 0x2C }
  - { offsetInCU: 0x14E93, offset: 0x14E93, size: 0x8, addend: 0x0, symName: __ZN4Game7initSDLEv, symObjAddr: 0x8E8, symBinAddr: 0x10000242C, symSize: 0x24C }
  - { offsetInCU: 0x14ED7, offset: 0x14ED7, size: 0x8, addend: 0x0, symName: __ZNSt3__113basic_ostreamIcNS_11char_traitsIcEEElsB8ue170006EPFRS3_S4_E, symObjAddr: 0xB7C, symBinAddr: 0x1000026C0, symSize: 0x2C }
  - { offsetInCU: 0x14F0B, offset: 0x14F0B, size: 0x8, addend: 0x0, symName: __ZN4Game6initUIE9GameState, symObjAddr: 0xC00, symBinAddr: 0x100002744, symSize: 0x44C }
  - { offsetInCU: 0x14FBB, offset: 0x14FBB, size: 0x8, addend: 0x0, symName: __ZNKSt3__112basic_stringIcNS_11char_traitsIcEENS_9allocatorIcEEE5c_strB8ue170006Ev, symObjAddr: 0x1090, symBinAddr: 0x100002BD4, symSize: 0x24 }
  - { offsetInCU: 0x14FE1, offset: 0x14FE1, size: 0x8, addend: 0x0, symName: __ZN4Game10initBoundsENSt3__112basic_stringIcNS0_11char_traitsIcEENS0_9allocatorIcEEEEP10GameObject6Circle, symObjAddr: 0x10B4, symBinAddr: 0x100002BF8, symSize: 0x1B0 }
  - { offsetInCU: 0x15034, offset: 0x15034, size: 0x8, addend: 0x0, symName: __ZN4Game12initEntitiesEv, symObjAddr: 0x1310, symBinAddr: 0x100002E54, symSize: 0xACC }
  - { offsetInCU: 0x151E8, offset: 0x151E8, size: 0x8, addend: 0x0, symName: __ZNSt3__112basic_stringIcNS_11char_traitsIcEENS_9allocatorIcEEEC1B8ue170006ILi0EEEPKc, symObjAddr: 0x1DDC, symBinAddr: 0x100003920, symSize: 0x34 }
  - { offsetInCU: 0x15227, offset: 0x15227, size: 0x8, addend: 0x0, symName: __ZN8Vector2DC1Eff, symObjAddr: 0x1E10, symBinAddr: 0x100003954, symSize: 0x3C }
  - { offsetInCU: 0x1526C, offset: 0x1526C, size: 0x8, addend: 0x0, symName: __Z17setCircularBoundsNSt3__112basic_stringIcNS_11char_traitsIcEENS_9allocatorIcEEEEffii, symObjAddr: 0x1E4C, symBinAddr: 0x100003990, symSize: 0x120 }
  - { offsetInCU: 0x152E7, offset: 0x152E7, size: 0x8, addend: 0x0, symName: __ZN4Game9loadLevelEi, symObjAddr: 0x1F6C, symBinAddr: 0x100003AB0, symSize: 0x5C }
  - { offsetInCU: 0x1531F, offset: 0x1531F, size: 0x8, addend: 0x0, symName: __ZNSt3__16vectorI5LevelNS_9allocatorIS1_EEEixB8ue170006Em, symObjAddr: 0x1FC8, symBinAddr: 0x100003B0C, symSize: 0x24 }
  - { offsetInCU: 0x15356, offset: 0x15356, size: 0x8, addend: 0x0, symName: __ZNKSt3__16vectorI4FishNS_9allocatorIS1_EEE4sizeB8ue170006Ev, symObjAddr: 0x1FEC, symBinAddr: 0x100003B30, symSize: 0x28 }
  - { offsetInCU: 0x1537C, offset: 0x1537C, size: 0x8, addend: 0x0, symName: __ZNSt3__16vectorI4FishNS_9allocatorIS1_EEEixB8ue170006Em, symObjAddr: 0x2014, symBinAddr: 0x100003B58, symSize: 0x2C }
  - { offsetInCU: 0x153B3, offset: 0x153B3, size: 0x8, addend: 0x0, symName: __ZNKSt3__16vectorI6CircleNS_9allocatorIS1_EEE4sizeB8ue170006Ev, symObjAddr: 0x2040, symBinAddr: 0x100003B84, symSize: 0x28 }
  - { offsetInCU: 0x153D9, offset: 0x153D9, size: 0x8, addend: 0x0, symName: __ZNSt3__16vectorI6CircleNS_9allocatorIS1_EEEC1ERKS4_, symObjAddr: 0x2068, symBinAddr: 0x100003BAC, symSize: 0x34 }
  - { offsetInCU: 0x15414, offset: 0x15414, size: 0x8, addend: 0x0, symName: __ZNSt3__16vectorI6CircleNS_9allocatorIS1_EEE9push_backB8ue170006ERKS1_, symObjAddr: 0x209C, symBinAddr: 0x100003BE0, symSize: 0x6C }
  - { offsetInCU: 0x1544B, offset: 0x1544B, size: 0x8, addend: 0x0, symName: __ZNSt3__16vectorIP5EnemyNS_9allocatorIS2_EEE9push_backB8ue170006ERKS2_, symObjAddr: 0x2108, symBinAddr: 0x100003C4C, symSize: 0x6C }
  - { offsetInCU: 0x15482, offset: 0x15482, size: 0x8, addend: 0x0, symName: __ZN4Game8gameLoopEv, symObjAddr: 0x2174, symBinAddr: 0x100003CB8, symSize: 0x30 }
  - { offsetInCU: 0x154AA, offset: 0x154AA, size: 0x8, addend: 0x0, symName: __ZN4Game3runEv, symObjAddr: 0x21A4, symBinAddr: 0x100003CE8, symSize: 0x3E8 }
  - { offsetInCU: 0x15548, offset: 0x15548, size: 0x8, addend: 0x0, symName: __ZN4Game6updateEf, symObjAddr: 0x258C, symBinAddr: 0x1000040D0, symSize: 0x4D4 }
  - { offsetInCU: 0x155EE, offset: 0x155EE, size: 0x8, addend: 0x0, symName: __ZN4Game6renderEv, symObjAddr: 0x2A60, symBinAddr: 0x1000045A4, symSize: 0x100 }
  - { offsetInCU: 0x15669, offset: 0x15669, size: 0x8, addend: 0x0, symName: __ZNKSt3__16vectorIP5EnemyNS_9allocatorIS2_EEE4sizeB8ue170006Ev, symObjAddr: 0x2B60, symBinAddr: 0x1000046A4, symSize: 0x28 }
  - { offsetInCU: 0x1568F, offset: 0x1568F, size: 0x8, addend: 0x0, symName: __ZNSt3__16vectorIP5EnemyNS_9allocatorIS2_EEEixB8ue170006Em, symObjAddr: 0x2B88, symBinAddr: 0x1000046CC, symSize: 0x24 }
  - { offsetInCU: 0x156C6, offset: 0x156C6, size: 0x8, addend: 0x0, symName: __ZN4Game21checkLevelProgressionEv, symObjAddr: 0x2BAC, symBinAddr: 0x1000046F0, symSize: 0x68 }
  - { offsetInCU: 0x156EF, offset: 0x156EF, size: 0x8, addend: 0x0, symName: __ZNSt3__16vectorIP5EnemyNS_9allocatorIS2_EEE5beginB8ue170006Ev, symObjAddr: 0x2C14, symBinAddr: 0x100004758, symSize: 0x30 }
  - { offsetInCU: 0x15717, offset: 0x15717, size: 0x8, addend: 0x0, symName: __ZNSt3__16vectorIP5EnemyNS_9allocatorIS2_EEE3endB8ue170006Ev, symObjAddr: 0x2C44, symBinAddr: 0x100004788, symSize: 0x30 }
  - { offsetInCU: 0x1573F, offset: 0x1573F, size: 0x8, addend: 0x0, symName: __ZNKSt3__111__wrap_iterIPP5EnemyEdeB8ue170006Ev, symObjAddr: 0x2CA8, symBinAddr: 0x1000047EC, symSize: 0x18 }
  - { offsetInCU: 0x15765, offset: 0x15765, size: 0x8, addend: 0x0, symName: __ZNSt3__111__wrap_iterIPP5EnemyEppB8ue170006Ev, symObjAddr: 0x2CC0, symBinAddr: 0x100004804, symSize: 0x20 }
  - { offsetInCU: 0x1578B, offset: 0x1578B, size: 0x8, addend: 0x0, symName: __ZN4Game9terminateEv, symObjAddr: 0x2CE0, symBinAddr: 0x100004824, symSize: 0x1C }
  - { offsetInCU: 0x157B4, offset: 0x157B4, size: 0x8, addend: 0x0, symName: __ZNKSt3__16vectorI5LevelNS_9allocatorIS1_EEE4sizeB8ue170006Ev, symObjAddr: 0x2CFC, symBinAddr: 0x100004840, symSize: 0x28 }
  - { offsetInCU: 0x157DA, offset: 0x157DA, size: 0x8, addend: 0x0, symName: __ZN4Game9nextLevelEv, symObjAddr: 0x2D24, symBinAddr: 0x100004868, symSize: 0x70 }
  - { offsetInCU: 0x15803, offset: 0x15803, size: 0x8, addend: 0x0, symName: __ZNSt3__16vectorI5LevelNS_9allocatorIS1_EEEC1B8ue170006Ev, symObjAddr: 0x2D94, symBinAddr: 0x1000048D8, symSize: 0x2C }
  - { offsetInCU: 0x15832, offset: 0x15832, size: 0x8, addend: 0x0, symName: __ZN4FishC1ERKS_, symObjAddr: 0x2DC0, symBinAddr: 0x100004904, symSize: 0x34 }
  - { offsetInCU: 0x15867, offset: 0x15867, size: 0x8, addend: 0x0, symName: __ZN4FishD1Ev, symObjAddr: 0x2DF4, symBinAddr: 0x100004938, symSize: 0x2C }
  - { offsetInCU: 0x15893, offset: 0x15893, size: 0x8, addend: 0x0, symName: __ZNSt3__16vectorI4FishNS_9allocatorIS1_EEEC1B8ue170006ESt16initializer_listIS1_E, symObjAddr: 0x2E20, symBinAddr: 0x100004964, symSize: 0x3C }
  - { offsetInCU: 0x158CE, offset: 0x158CE, size: 0x8, addend: 0x0, symName: __ZNSt3__16vectorI5LevelNS_9allocatorIS1_EEE9push_backB8ue170006EOS1_, symObjAddr: 0x2E5C, symBinAddr: 0x1000049A0, symSize: 0x6C }
  - { offsetInCU: 0x15905, offset: 0x15905, size: 0x8, addend: 0x0, symName: __ZNSt3__16vectorI4FishNS_9allocatorIS1_EEEC1ERKS4_, symObjAddr: 0x2EC8, symBinAddr: 0x100004A0C, symSize: 0x34 }
  - { offsetInCU: 0x15940, offset: 0x15940, size: 0x8, addend: 0x0, symName: __ZNSt3__16vectorI4FishNS_9allocatorIS1_EEED1B8ue170006Ev, symObjAddr: 0x2EFC, symBinAddr: 0x100004A40, symSize: 0x2C }
  - { offsetInCU: 0x15969, offset: 0x15969, size: 0x8, addend: 0x0, symName: __Z18initCircularRadiusNSt3__112basic_stringIcNS_11char_traitsIcEENS_9allocatorIcEEEEii, symObjAddr: 0x2F28, symBinAddr: 0x100004A6C, symSize: 0x8C }
  - { offsetInCU: 0x159C5, offset: 0x159C5, size: 0x8, addend: 0x0, symName: __Z10drawCircleP12SDL_Rendereriii, symObjAddr: 0x2FB4, symBinAddr: 0x100004AF8, symSize: 0x1D8 }
  - { offsetInCU: 0x15A4A, offset: 0x15A4A, size: 0x8, addend: 0x0, symName: __ZN8Vector2DC2Eff, symObjAddr: 0x318C, symBinAddr: 0x100004CD0, symSize: 0x2C }
  - { offsetInCU: 0x15A90, offset: 0x15A90, size: 0x8, addend: 0x0, symName: __ZNKSt3__111__wrap_iterIPP5EnemyE4baseB8ue170006Ev, symObjAddr: 0x3200, symBinAddr: 0x100004D44, symSize: 0x18 }
  - { offsetInCU: 0x15AB6, offset: 0x15AB6, size: 0x8, addend: 0x0, symName: __ZN4FishC2ERKS_, symObjAddr: 0x3218, symBinAddr: 0x100004D5C, symSize: 0x48 }
  - { offsetInCU: 0x15AEB, offset: 0x15AEB, size: 0x8, addend: 0x0, symName: __ZN4FishD2Ev, symObjAddr: 0x3260, symBinAddr: 0x100004DA4, symSize: 0x2C }
  - { offsetInCU: 0x15B17, offset: 0x15B17, size: 0x8, addend: 0x0, symName: __ZNSt3__16vectorI5LevelNS_9allocatorIS1_EEED2B8ue170006Ev, symObjAddr: 0x328C, symBinAddr: 0x100004DD0, symSize: 0x44 }
  - { offsetInCU: 0x15B41, offset: 0x15B41, size: 0x8, addend: 0x0, symName: __ZNSt3__16vectorI5LevelNS_9allocatorIS1_EEE16__destroy_vectorC1B8ue170006ERS4_, symObjAddr: 0x32D0, symBinAddr: 0x100004E14, symSize: 0x34 }
  - { offsetInCU: 0x15B7A, offset: 0x15B7A, size: 0x8, addend: 0x0, symName: __ZNSt3__16vectorI5LevelNS_9allocatorIS1_EEE16__destroy_vectorclB8ue170006Ev, symObjAddr: 0x3310, symBinAddr: 0x100004E54, symSize: 0x90 }
  - { offsetInCU: 0x15BA0, offset: 0x15BA0, size: 0x8, addend: 0x0, symName: __ZNSt3__16vectorI5LevelNS_9allocatorIS1_EEE16__destroy_vectorC2B8ue170006ERS4_, symObjAddr: 0x33A0, symBinAddr: 0x100004EE4, symSize: 0x20 }
  - { offsetInCU: 0x15BD9, offset: 0x15BD9, size: 0x8, addend: 0x0, symName: __ZNSt3__16vectorI5LevelNS_9allocatorIS1_EEE7__clearB8ue170006Ev, symObjAddr: 0x33C0, symBinAddr: 0x100004F04, symSize: 0x28 }
  - { offsetInCU: 0x15BFF, offset: 0x15BFF, size: 0x8, addend: 0x0, symName: __ZNKSt3__16vectorI5LevelNS_9allocatorIS1_EEE17__annotate_deleteB8ue170006Ev, symObjAddr: 0x33E8, symBinAddr: 0x100004F2C, symSize: 0xB8 }
  - { offsetInCU: 0x15C25, offset: 0x15C25, size: 0x8, addend: 0x0, symName: __ZNSt3__116allocator_traitsINS_9allocatorI5LevelEEE10deallocateB8ue170006ERS3_PS2_m, symObjAddr: 0x34A0, symBinAddr: 0x100004FE4, symSize: 0x34 }
  - { offsetInCU: 0x15C67, offset: 0x15C67, size: 0x8, addend: 0x0, symName: __ZNSt3__16vectorI5LevelNS_9allocatorIS1_EEE7__allocB8ue170006Ev, symObjAddr: 0x34D4, symBinAddr: 0x100005018, symSize: 0x28 }
  - { offsetInCU: 0x15C8D, offset: 0x15C8D, size: 0x8, addend: 0x0, symName: __ZNKSt3__16vectorI5LevelNS_9allocatorIS1_EEE8capacityB8ue170006Ev, symObjAddr: 0x34FC, symBinAddr: 0x100005040, symSize: 0x40 }
  - { offsetInCU: 0x15CB3, offset: 0x15CB3, size: 0x8, addend: 0x0, symName: __ZNSt3__16vectorI5LevelNS_9allocatorIS1_EEE22__base_destruct_at_endB8ue170006EPS1_, symObjAddr: 0x353C, symBinAddr: 0x100005080, symSize: 0x8C }
  - { offsetInCU: 0x15CF7, offset: 0x15CF7, size: 0x8, addend: 0x0, symName: __ZNSt3__116allocator_traitsINS_9allocatorI5LevelEEE7destroyB8ue170006IS2_vEEvRS3_PT_, symObjAddr: 0x35C8, symBinAddr: 0x10000510C, symSize: 0x2C }
  - { offsetInCU: 0x15D34, offset: 0x15D34, size: 0x8, addend: 0x0, symName: __ZNSt3__19allocatorI5LevelE7destroyB8ue170006EPS1_, symObjAddr: 0x3608, symBinAddr: 0x10000514C, symSize: 0x28 }
  - { offsetInCU: 0x15D68, offset: 0x15D68, size: 0x8, addend: 0x0, symName: __ZNKSt3__16vectorI5LevelNS_9allocatorIS1_EEE31__annotate_contiguous_containerB8ue170006EPKvS6_S6_S6_, symObjAddr: 0x3630, symBinAddr: 0x100005174, symSize: 0x20 }
  - { offsetInCU: 0x15DBA, offset: 0x15DBA, size: 0x8, addend: 0x0, symName: __ZNKSt3__16vectorI5LevelNS_9allocatorIS1_EEE4dataB8ue170006Ev, symObjAddr: 0x3650, symBinAddr: 0x100005194, symSize: 0x28 }
  - { offsetInCU: 0x15DE0, offset: 0x15DE0, size: 0x8, addend: 0x0, symName: __ZNSt3__19allocatorI5LevelE10deallocateB8ue170006EPS1_m, symObjAddr: 0x3678, symBinAddr: 0x1000051BC, symSize: 0x40 }
  - { offsetInCU: 0x15E22, offset: 0x15E22, size: 0x8, addend: 0x0, symName: __ZNSt3__117__compressed_pairIP5LevelNS_9allocatorIS1_EEE6secondB8ue170006Ev, symObjAddr: 0x37E0, symBinAddr: 0x100005324, symSize: 0x24 }
  - { offsetInCU: 0x15E48, offset: 0x15E48, size: 0x8, addend: 0x0, symName: __ZNSt3__122__compressed_pair_elemINS_9allocatorI5LevelEELi1ELb1EE5__getB8ue170006Ev, symObjAddr: 0x3804, symBinAddr: 0x100005348, symSize: 0x14 }
  - { offsetInCU: 0x15E6E, offset: 0x15E6E, size: 0x8, addend: 0x0, symName: __ZNKSt3__16vectorI5LevelNS_9allocatorIS1_EEE9__end_capB8ue170006Ev, symObjAddr: 0x3818, symBinAddr: 0x10000535C, symSize: 0x28 }
  - { offsetInCU: 0x15E94, offset: 0x15E94, size: 0x8, addend: 0x0, symName: __ZNKSt3__117__compressed_pairIP5LevelNS_9allocatorIS1_EEE5firstB8ue170006Ev, symObjAddr: 0x3840, symBinAddr: 0x100005384, symSize: 0x24 }
  - { offsetInCU: 0x15EBA, offset: 0x15EBA, size: 0x8, addend: 0x0, symName: __ZNKSt3__122__compressed_pair_elemIP5LevelLi0ELb0EE5__getB8ue170006Ev, symObjAddr: 0x3864, symBinAddr: 0x1000053A8, symSize: 0x14 }
  - { offsetInCU: 0x15EE0, offset: 0x15EE0, size: 0x8, addend: 0x0, symName: __ZNSt3__16vectorIP5EnemyNS_9allocatorIS2_EEEC2B8ue170006Ev, symObjAddr: 0x3878, symBinAddr: 0x1000053BC, symSize: 0x4C }
  - { offsetInCU: 0x15F14, offset: 0x15F14, size: 0x8, addend: 0x0, symName: __ZNSt3__117__compressed_pairIPP5EnemyNS_9allocatorIS2_EEEC1B8ue170006IDnNS_18__default_init_tagEEEOT_OT0_, symObjAddr: 0x38C4, symBinAddr: 0x100005408, symSize: 0x3C }
  - { offsetInCU: 0x15F6C, offset: 0x15F6C, size: 0x8, addend: 0x0, symName: __ZNSt3__117__compressed_pairIPP5EnemyNS_9allocatorIS2_EEEC2B8ue170006IDnNS_18__default_init_tagEEEOT_OT0_, symObjAddr: 0x3900, symBinAddr: 0x100005444, symSize: 0x40 }
  - { offsetInCU: 0x15FC4, offset: 0x15FC4, size: 0x8, addend: 0x0, symName: __ZNSt3__122__compressed_pair_elemIPP5EnemyLi0ELb0EEC2B8ue170006IDnvEEOT_, symObjAddr: 0x3940, symBinAddr: 0x100005484, symSize: 0x1C }
  - { offsetInCU: 0x16006, offset: 0x16006, size: 0x8, addend: 0x0, symName: __ZNSt3__122__compressed_pair_elemINS_9allocatorIP5EnemyEELi1ELb1EEC2B8ue170006ENS_18__default_init_tagE, symObjAddr: 0x395C, symBinAddr: 0x1000054A0, symSize: 0x2C }
  - { offsetInCU: 0x1603B, offset: 0x1603B, size: 0x8, addend: 0x0, symName: __ZNSt3__19allocatorIP5EnemyEC2B8ue170006Ev, symObjAddr: 0x3988, symBinAddr: 0x1000054CC, symSize: 0x2C }
  - { offsetInCU: 0x16065, offset: 0x16065, size: 0x8, addend: 0x0, symName: __ZNSt3__116__non_trivial_ifILb1ENS_9allocatorIP5EnemyEEEC2B8ue170006Ev, symObjAddr: 0x39B4, symBinAddr: 0x1000054F8, symSize: 0x14 }
  - { offsetInCU: 0x1608F, offset: 0x1608F, size: 0x8, addend: 0x0, symName: __ZNSt3__16vectorIP10GameObjectNS_9allocatorIS2_EEEC2B8ue170006Ev, symObjAddr: 0x39C8, symBinAddr: 0x10000550C, symSize: 0x4C }
  - { offsetInCU: 0x160B9, offset: 0x160B9, size: 0x8, addend: 0x0, symName: __ZNSt3__117__compressed_pairIPP10GameObjectNS_9allocatorIS2_EEEC1B8ue170006IDnNS_18__default_init_tagEEEOT_OT0_, symObjAddr: 0x3A14, symBinAddr: 0x100005558, symSize: 0x3C }
  - { offsetInCU: 0x16111, offset: 0x16111, size: 0x8, addend: 0x0, symName: __ZNSt3__117__compressed_pairIPP10GameObjectNS_9allocatorIS2_EEEC2B8ue170006IDnNS_18__default_init_tagEEEOT_OT0_, symObjAddr: 0x3A50, symBinAddr: 0x100005594, symSize: 0x40 }
  - { offsetInCU: 0x16169, offset: 0x16169, size: 0x8, addend: 0x0, symName: __ZNSt3__122__compressed_pair_elemIPP10GameObjectLi0ELb0EEC2B8ue170006IDnvEEOT_, symObjAddr: 0x3A90, symBinAddr: 0x1000055D4, symSize: 0x1C }
  - { offsetInCU: 0x161AB, offset: 0x161AB, size: 0x8, addend: 0x0, symName: __ZNSt3__122__compressed_pair_elemINS_9allocatorIP10GameObjectEELi1ELb1EEC2B8ue170006ENS_18__default_init_tagE, symObjAddr: 0x3AAC, symBinAddr: 0x1000055F0, symSize: 0x2C }
  - { offsetInCU: 0x161E0, offset: 0x161E0, size: 0x8, addend: 0x0, symName: __ZNSt3__19allocatorIP10GameObjectEC2B8ue170006Ev, symObjAddr: 0x3AD8, symBinAddr: 0x10000561C, symSize: 0x2C }
  - { offsetInCU: 0x1620A, offset: 0x1620A, size: 0x8, addend: 0x0, symName: __ZNSt3__116__non_trivial_ifILb1ENS_9allocatorIP10GameObjectEEEC2B8ue170006Ev, symObjAddr: 0x3B04, symBinAddr: 0x100005648, symSize: 0x14 }
  - { offsetInCU: 0x16234, offset: 0x16234, size: 0x8, addend: 0x0, symName: __ZNSt3__16vectorI6CircleNS_9allocatorIS1_EEEC2B8ue170006Ev, symObjAddr: 0x3B18, symBinAddr: 0x10000565C, symSize: 0x4C }
  - { offsetInCU: 0x1625E, offset: 0x1625E, size: 0x8, addend: 0x0, symName: __ZNSt3__117__compressed_pairIP6CircleNS_9allocatorIS1_EEEC1B8ue170006IDnNS_18__default_init_tagEEEOT_OT0_, symObjAddr: 0x3B64, symBinAddr: 0x1000056A8, symSize: 0x3C }
  - { offsetInCU: 0x162B6, offset: 0x162B6, size: 0x8, addend: 0x0, symName: __ZNSt3__117__compressed_pairIP6CircleNS_9allocatorIS1_EEEC2B8ue170006IDnNS_18__default_init_tagEEEOT_OT0_, symObjAddr: 0x3BA0, symBinAddr: 0x1000056E4, symSize: 0x40 }
  - { offsetInCU: 0x1630E, offset: 0x1630E, size: 0x8, addend: 0x0, symName: __ZNSt3__122__compressed_pair_elemIP6CircleLi0ELb0EEC2B8ue170006IDnvEEOT_, symObjAddr: 0x3BE0, symBinAddr: 0x100005724, symSize: 0x1C }
  - { offsetInCU: 0x16350, offset: 0x16350, size: 0x8, addend: 0x0, symName: __ZNSt3__122__compressed_pair_elemINS_9allocatorI6CircleEELi1ELb1EEC2B8ue170006ENS_18__default_init_tagE, symObjAddr: 0x3BFC, symBinAddr: 0x100005740, symSize: 0x2C }
  - { offsetInCU: 0x16385, offset: 0x16385, size: 0x8, addend: 0x0, symName: __ZNSt3__19allocatorI6CircleEC2B8ue170006Ev, symObjAddr: 0x3C28, symBinAddr: 0x10000576C, symSize: 0x2C }
  - { offsetInCU: 0x163AF, offset: 0x163AF, size: 0x8, addend: 0x0, symName: __ZNSt3__116__non_trivial_ifILb1ENS_9allocatorI6CircleEEEC2B8ue170006Ev, symObjAddr: 0x3C54, symBinAddr: 0x100005798, symSize: 0x14 }
  - { offsetInCU: 0x163D9, offset: 0x163D9, size: 0x8, addend: 0x0, symName: __ZNSt3__16vectorIP5EnemyNS_9allocatorIS2_EEED2B8ue170006Ev, symObjAddr: 0x3C68, symBinAddr: 0x1000057AC, symSize: 0x44 }
  - { offsetInCU: 0x16403, offset: 0x16403, size: 0x8, addend: 0x0, symName: __ZNSt3__16vectorIP5EnemyNS_9allocatorIS2_EEE16__destroy_vectorC1B8ue170006ERS5_, symObjAddr: 0x3CAC, symBinAddr: 0x1000057F0, symSize: 0x34 }
  - { offsetInCU: 0x1643C, offset: 0x1643C, size: 0x8, addend: 0x0, symName: __ZNSt3__16vectorIP5EnemyNS_9allocatorIS2_EEE16__destroy_vectorclB8ue170006Ev, symObjAddr: 0x3CE0, symBinAddr: 0x100005824, symSize: 0x90 }
  - { offsetInCU: 0x16462, offset: 0x16462, size: 0x8, addend: 0x0, symName: __ZNSt3__16vectorIP5EnemyNS_9allocatorIS2_EEE16__destroy_vectorC2B8ue170006ERS5_, symObjAddr: 0x3D70, symBinAddr: 0x1000058B4, symSize: 0x20 }
  - { offsetInCU: 0x1649B, offset: 0x1649B, size: 0x8, addend: 0x0, symName: __ZNSt3__16vectorIP5EnemyNS_9allocatorIS2_EEE7__clearB8ue170006Ev, symObjAddr: 0x3D90, symBinAddr: 0x1000058D4, symSize: 0x28 }
  - { offsetInCU: 0x164C1, offset: 0x164C1, size: 0x8, addend: 0x0, symName: __ZNKSt3__16vectorIP5EnemyNS_9allocatorIS2_EEE17__annotate_deleteB8ue170006Ev, symObjAddr: 0x3DB8, symBinAddr: 0x1000058FC, symSize: 0xB8 }
  - { offsetInCU: 0x164E7, offset: 0x164E7, size: 0x8, addend: 0x0, symName: __ZNSt3__116allocator_traitsINS_9allocatorIP5EnemyEEE10deallocateB8ue170006ERS4_PS3_m, symObjAddr: 0x3E70, symBinAddr: 0x1000059B4, symSize: 0x34 }
  - { offsetInCU: 0x16529, offset: 0x16529, size: 0x8, addend: 0x0, symName: __ZNSt3__16vectorIP5EnemyNS_9allocatorIS2_EEE7__allocB8ue170006Ev, symObjAddr: 0x3EA4, symBinAddr: 0x1000059E8, symSize: 0x28 }
  - { offsetInCU: 0x1654F, offset: 0x1654F, size: 0x8, addend: 0x0, symName: __ZNKSt3__16vectorIP5EnemyNS_9allocatorIS2_EEE8capacityB8ue170006Ev, symObjAddr: 0x3ECC, symBinAddr: 0x100005A10, symSize: 0x40 }
  - { offsetInCU: 0x16575, offset: 0x16575, size: 0x8, addend: 0x0, symName: __ZNSt3__16vectorIP5EnemyNS_9allocatorIS2_EEE22__base_destruct_at_endB8ue170006EPS2_, symObjAddr: 0x3F0C, symBinAddr: 0x100005A50, symSize: 0x8C }
  - { offsetInCU: 0x165B9, offset: 0x165B9, size: 0x8, addend: 0x0, symName: __ZNSt3__116allocator_traitsINS_9allocatorIP5EnemyEEE7destroyB8ue170006IS3_vEEvRS4_PT_, symObjAddr: 0x3F98, symBinAddr: 0x100005ADC, symSize: 0x2C }
  - { offsetInCU: 0x165F6, offset: 0x165F6, size: 0x8, addend: 0x0, symName: __ZNSt3__19allocatorIP5EnemyE7destroyB8ue170006EPS2_, symObjAddr: 0x3FD8, symBinAddr: 0x100005B1C, symSize: 0x14 }
  - { offsetInCU: 0x1662A, offset: 0x1662A, size: 0x8, addend: 0x0, symName: __ZNKSt3__16vectorIP5EnemyNS_9allocatorIS2_EEE31__annotate_contiguous_containerB8ue170006EPKvS7_S7_S7_, symObjAddr: 0x3FEC, symBinAddr: 0x100005B30, symSize: 0x20 }
  - { offsetInCU: 0x1667C, offset: 0x1667C, size: 0x8, addend: 0x0, symName: __ZNKSt3__16vectorIP5EnemyNS_9allocatorIS2_EEE4dataB8ue170006Ev, symObjAddr: 0x400C, symBinAddr: 0x100005B50, symSize: 0x28 }
  - { offsetInCU: 0x166A2, offset: 0x166A2, size: 0x8, addend: 0x0, symName: __ZNSt3__19allocatorIP5EnemyE10deallocateB8ue170006EPS2_m, symObjAddr: 0x4034, symBinAddr: 0x100005B78, symSize: 0x40 }
  - { offsetInCU: 0x166E4, offset: 0x166E4, size: 0x8, addend: 0x0, symName: __ZNSt3__117__compressed_pairIPP5EnemyNS_9allocatorIS2_EEE6secondB8ue170006Ev, symObjAddr: 0x4074, symBinAddr: 0x100005BB8, symSize: 0x24 }
  - { offsetInCU: 0x1670A, offset: 0x1670A, size: 0x8, addend: 0x0, symName: __ZNSt3__122__compressed_pair_elemINS_9allocatorIP5EnemyEELi1ELb1EE5__getB8ue170006Ev, symObjAddr: 0x4098, symBinAddr: 0x100005BDC, symSize: 0x14 }
  - { offsetInCU: 0x16730, offset: 0x16730, size: 0x8, addend: 0x0, symName: __ZNKSt3__16vectorIP5EnemyNS_9allocatorIS2_EEE9__end_capB8ue170006Ev, symObjAddr: 0x40AC, symBinAddr: 0x100005BF0, symSize: 0x28 }
  - { offsetInCU: 0x16756, offset: 0x16756, size: 0x8, addend: 0x0, symName: __ZNKSt3__117__compressed_pairIPP5EnemyNS_9allocatorIS2_EEE5firstB8ue170006Ev, symObjAddr: 0x40D4, symBinAddr: 0x100005C18, symSize: 0x24 }
  - { offsetInCU: 0x1677C, offset: 0x1677C, size: 0x8, addend: 0x0, symName: __ZNKSt3__122__compressed_pair_elemIPP5EnemyLi0ELb0EE5__getB8ue170006Ev, symObjAddr: 0x40F8, symBinAddr: 0x100005C3C, symSize: 0x14 }
  - { offsetInCU: 0x167A2, offset: 0x167A2, size: 0x8, addend: 0x0, symName: __ZNSt3__16vectorIP10GameObjectNS_9allocatorIS2_EEED2B8ue170006Ev, symObjAddr: 0x410C, symBinAddr: 0x100005C50, symSize: 0x44 }
  - { offsetInCU: 0x167CC, offset: 0x167CC, size: 0x8, addend: 0x0, symName: __ZNSt3__16vectorIP10GameObjectNS_9allocatorIS2_EEE16__destroy_vectorC1B8ue170006ERS5_, symObjAddr: 0x4150, symBinAddr: 0x100005C94, symSize: 0x34 }
  - { offsetInCU: 0x16805, offset: 0x16805, size: 0x8, addend: 0x0, symName: __ZNSt3__16vectorIP10GameObjectNS_9allocatorIS2_EEE16__destroy_vectorclB8ue170006Ev, symObjAddr: 0x4184, symBinAddr: 0x100005CC8, symSize: 0x90 }
  - { offsetInCU: 0x1682B, offset: 0x1682B, size: 0x8, addend: 0x0, symName: __ZNSt3__16vectorIP10GameObjectNS_9allocatorIS2_EEE16__destroy_vectorC2B8ue170006ERS5_, symObjAddr: 0x4214, symBinAddr: 0x100005D58, symSize: 0x20 }
  - { offsetInCU: 0x16864, offset: 0x16864, size: 0x8, addend: 0x0, symName: __ZNSt3__16vectorIP10GameObjectNS_9allocatorIS2_EEE7__clearB8ue170006Ev, symObjAddr: 0x4234, symBinAddr: 0x100005D78, symSize: 0x28 }
  - { offsetInCU: 0x1688A, offset: 0x1688A, size: 0x8, addend: 0x0, symName: __ZNKSt3__16vectorIP10GameObjectNS_9allocatorIS2_EEE17__annotate_deleteB8ue170006Ev, symObjAddr: 0x425C, symBinAddr: 0x100005DA0, symSize: 0xB8 }
  - { offsetInCU: 0x168B0, offset: 0x168B0, size: 0x8, addend: 0x0, symName: __ZNSt3__116allocator_traitsINS_9allocatorIP10GameObjectEEE10deallocateB8ue170006ERS4_PS3_m, symObjAddr: 0x4314, symBinAddr: 0x100005E58, symSize: 0x34 }
  - { offsetInCU: 0x168F2, offset: 0x168F2, size: 0x8, addend: 0x0, symName: __ZNSt3__16vectorIP10GameObjectNS_9allocatorIS2_EEE7__allocB8ue170006Ev, symObjAddr: 0x4348, symBinAddr: 0x100005E8C, symSize: 0x28 }
  - { offsetInCU: 0x16918, offset: 0x16918, size: 0x8, addend: 0x0, symName: __ZNKSt3__16vectorIP10GameObjectNS_9allocatorIS2_EEE8capacityB8ue170006Ev, symObjAddr: 0x4370, symBinAddr: 0x100005EB4, symSize: 0x40 }
  - { offsetInCU: 0x1693E, offset: 0x1693E, size: 0x8, addend: 0x0, symName: __ZNSt3__16vectorIP10GameObjectNS_9allocatorIS2_EEE22__base_destruct_at_endB8ue170006EPS2_, symObjAddr: 0x43B0, symBinAddr: 0x100005EF4, symSize: 0x8C }
  - { offsetInCU: 0x16982, offset: 0x16982, size: 0x8, addend: 0x0, symName: __ZNSt3__116allocator_traitsINS_9allocatorIP10GameObjectEEE7destroyB8ue170006IS3_vEEvRS4_PT_, symObjAddr: 0x443C, symBinAddr: 0x100005F80, symSize: 0x2C }
  - { offsetInCU: 0x169BF, offset: 0x169BF, size: 0x8, addend: 0x0, symName: __ZNSt3__19allocatorIP10GameObjectE7destroyB8ue170006EPS2_, symObjAddr: 0x447C, symBinAddr: 0x100005FC0, symSize: 0x14 }
  - { offsetInCU: 0x169F3, offset: 0x169F3, size: 0x8, addend: 0x0, symName: __ZNKSt3__16vectorIP10GameObjectNS_9allocatorIS2_EEE31__annotate_contiguous_containerB8ue170006EPKvS7_S7_S7_, symObjAddr: 0x4490, symBinAddr: 0x100005FD4, symSize: 0x20 }
  - { offsetInCU: 0x16A45, offset: 0x16A45, size: 0x8, addend: 0x0, symName: __ZNKSt3__16vectorIP10GameObjectNS_9allocatorIS2_EEE4dataB8ue170006Ev, symObjAddr: 0x44B0, symBinAddr: 0x100005FF4, symSize: 0x28 }
  - { offsetInCU: 0x16A6B, offset: 0x16A6B, size: 0x8, addend: 0x0, symName: __ZNKSt3__16vectorIP10GameObjectNS_9allocatorIS2_EEE4sizeB8ue170006Ev, symObjAddr: 0x44D8, symBinAddr: 0x10000601C, symSize: 0x28 }
  - { offsetInCU: 0x16A91, offset: 0x16A91, size: 0x8, addend: 0x0, symName: __ZNSt3__19allocatorIP10GameObjectE10deallocateB8ue170006EPS2_m, symObjAddr: 0x4500, symBinAddr: 0x100006044, symSize: 0x40 }
  - { offsetInCU: 0x16AD3, offset: 0x16AD3, size: 0x8, addend: 0x0, symName: __ZNSt3__117__compressed_pairIPP10GameObjectNS_9allocatorIS2_EEE6secondB8ue170006Ev, symObjAddr: 0x4540, symBinAddr: 0x100006084, symSize: 0x24 }
  - { offsetInCU: 0x16AF9, offset: 0x16AF9, size: 0x8, addend: 0x0, symName: __ZNSt3__122__compressed_pair_elemINS_9allocatorIP10GameObjectEELi1ELb1EE5__getB8ue170006Ev, symObjAddr: 0x4564, symBinAddr: 0x1000060A8, symSize: 0x14 }
  - { offsetInCU: 0x16B1F, offset: 0x16B1F, size: 0x8, addend: 0x0, symName: __ZNKSt3__16vectorIP10GameObjectNS_9allocatorIS2_EEE9__end_capB8ue170006Ev, symObjAddr: 0x4578, symBinAddr: 0x1000060BC, symSize: 0x28 }
  - { offsetInCU: 0x16B45, offset: 0x16B45, size: 0x8, addend: 0x0, symName: __ZNKSt3__117__compressed_pairIPP10GameObjectNS_9allocatorIS2_EEE5firstB8ue170006Ev, symObjAddr: 0x45A0, symBinAddr: 0x1000060E4, symSize: 0x24 }
  - { offsetInCU: 0x16B6B, offset: 0x16B6B, size: 0x8, addend: 0x0, symName: __ZNKSt3__122__compressed_pair_elemIPP10GameObjectLi0ELb0EE5__getB8ue170006Ev, symObjAddr: 0x45C4, symBinAddr: 0x100006108, symSize: 0x14 }
  - { offsetInCU: 0x16B91, offset: 0x16B91, size: 0x8, addend: 0x0, symName: __ZNSt3__16vectorI6CircleNS_9allocatorIS1_EEED2B8ue170006Ev, symObjAddr: 0x45D8, symBinAddr: 0x10000611C, symSize: 0x44 }
  - { offsetInCU: 0x16BBB, offset: 0x16BBB, size: 0x8, addend: 0x0, symName: __ZNSt3__16vectorI6CircleNS_9allocatorIS1_EEE16__destroy_vectorC1B8ue170006ERS4_, symObjAddr: 0x461C, symBinAddr: 0x100006160, symSize: 0x34 }
  - { offsetInCU: 0x16BF4, offset: 0x16BF4, size: 0x8, addend: 0x0, symName: __ZNSt3__16vectorI6CircleNS_9allocatorIS1_EEE16__destroy_vectorclB8ue170006Ev, symObjAddr: 0x4650, symBinAddr: 0x100006194, symSize: 0x90 }
  - { offsetInCU: 0x16C1A, offset: 0x16C1A, size: 0x8, addend: 0x0, symName: __ZNSt3__16vectorI6CircleNS_9allocatorIS1_EEE16__destroy_vectorC2B8ue170006ERS4_, symObjAddr: 0x46E0, symBinAddr: 0x100006224, symSize: 0x20 }
  - { offsetInCU: 0x16C53, offset: 0x16C53, size: 0x8, addend: 0x0, symName: __ZNSt3__16vectorI6CircleNS_9allocatorIS1_EEE7__clearB8ue170006Ev, symObjAddr: 0x4700, symBinAddr: 0x100006244, symSize: 0x28 }
  - { offsetInCU: 0x16C79, offset: 0x16C79, size: 0x8, addend: 0x0, symName: __ZNKSt3__16vectorI6CircleNS_9allocatorIS1_EEE17__annotate_deleteB8ue170006Ev, symObjAddr: 0x4728, symBinAddr: 0x10000626C, symSize: 0xD4 }
  - { offsetInCU: 0x16C9F, offset: 0x16C9F, size: 0x8, addend: 0x0, symName: __ZNSt3__116allocator_traitsINS_9allocatorI6CircleEEE10deallocateB8ue170006ERS3_PS2_m, symObjAddr: 0x47FC, symBinAddr: 0x100006340, symSize: 0x34 }
  - { offsetInCU: 0x16CE1, offset: 0x16CE1, size: 0x8, addend: 0x0, symName: __ZNSt3__16vectorI6CircleNS_9allocatorIS1_EEE7__allocB8ue170006Ev, symObjAddr: 0x4830, symBinAddr: 0x100006374, symSize: 0x28 }
  - { offsetInCU: 0x16D07, offset: 0x16D07, size: 0x8, addend: 0x0, symName: __ZNKSt3__16vectorI6CircleNS_9allocatorIS1_EEE8capacityB8ue170006Ev, symObjAddr: 0x4858, symBinAddr: 0x10000639C, symSize: 0x40 }
  - { offsetInCU: 0x16D2D, offset: 0x16D2D, size: 0x8, addend: 0x0, symName: __ZNSt3__16vectorI6CircleNS_9allocatorIS1_EEE22__base_destruct_at_endB8ue170006EPS1_, symObjAddr: 0x4898, symBinAddr: 0x1000063DC, symSize: 0x8C }
  - { offsetInCU: 0x16D71, offset: 0x16D71, size: 0x8, addend: 0x0, symName: __ZNSt3__116allocator_traitsINS_9allocatorI6CircleEEE7destroyB8ue170006IS2_vEEvRS3_PT_, symObjAddr: 0x4924, symBinAddr: 0x100006468, symSize: 0x2C }
  - { offsetInCU: 0x16DAE, offset: 0x16DAE, size: 0x8, addend: 0x0, symName: __ZNSt3__19allocatorI6CircleE7destroyB8ue170006EPS1_, symObjAddr: 0x4964, symBinAddr: 0x1000064A8, symSize: 0x14 }
  - { offsetInCU: 0x16DE2, offset: 0x16DE2, size: 0x8, addend: 0x0, symName: __ZNKSt3__16vectorI6CircleNS_9allocatorIS1_EEE31__annotate_contiguous_containerB8ue170006EPKvS6_S6_S6_, symObjAddr: 0x4978, symBinAddr: 0x1000064BC, symSize: 0x20 }
  - { offsetInCU: 0x16E34, offset: 0x16E34, size: 0x8, addend: 0x0, symName: __ZNKSt3__16vectorI6CircleNS_9allocatorIS1_EEE4dataB8ue170006Ev, symObjAddr: 0x4998, symBinAddr: 0x1000064DC, symSize: 0x28 }
  - { offsetInCU: 0x16E5A, offset: 0x16E5A, size: 0x8, addend: 0x0, symName: __ZNSt3__19allocatorI6CircleE10deallocateB8ue170006EPS1_m, symObjAddr: 0x49C0, symBinAddr: 0x100006504, symSize: 0x44 }
  - { offsetInCU: 0x16E9C, offset: 0x16E9C, size: 0x8, addend: 0x0, symName: __ZNSt3__117__compressed_pairIP6CircleNS_9allocatorIS1_EEE6secondB8ue170006Ev, symObjAddr: 0x4A04, symBinAddr: 0x100006548, symSize: 0x24 }
  - { offsetInCU: 0x16EC2, offset: 0x16EC2, size: 0x8, addend: 0x0, symName: __ZNSt3__122__compressed_pair_elemINS_9allocatorI6CircleEELi1ELb1EE5__getB8ue170006Ev, symObjAddr: 0x4A28, symBinAddr: 0x10000656C, symSize: 0x14 }
  - { offsetInCU: 0x16EE8, offset: 0x16EE8, size: 0x8, addend: 0x0, symName: __ZNKSt3__16vectorI6CircleNS_9allocatorIS1_EEE9__end_capB8ue170006Ev, symObjAddr: 0x4A3C, symBinAddr: 0x100006580, symSize: 0x28 }
  - { offsetInCU: 0x16F0E, offset: 0x16F0E, size: 0x8, addend: 0x0, symName: __ZNKSt3__117__compressed_pairIP6CircleNS_9allocatorIS1_EEE5firstB8ue170006Ev, symObjAddr: 0x4A64, symBinAddr: 0x1000065A8, symSize: 0x24 }
  - { offsetInCU: 0x16F34, offset: 0x16F34, size: 0x8, addend: 0x0, symName: __ZNKSt3__122__compressed_pair_elemIP6CircleLi0ELb0EE5__getB8ue170006Ev, symObjAddr: 0x4A88, symBinAddr: 0x1000065CC, symSize: 0x14 }
  - { offsetInCU: 0x16F5A, offset: 0x16F5A, size: 0x8, addend: 0x0, symName: __ZNSt3__111char_traitsIcE6lengthB8ue170006EPKc, symObjAddr: 0x4C88, symBinAddr: 0x1000067CC, symSize: 0x34 }
  - { offsetInCU: 0x16F9B, offset: 0x16F9B, size: 0x8, addend: 0x0, symName: __ZNKSt3__113basic_ostreamIcNS_11char_traitsIcEEE6sentrycvbB8ue170006Ev, symObjAddr: 0x4CBC, symBinAddr: 0x100006800, symSize: 0x1C }
  - { offsetInCU: 0x16FC1, offset: 0x16FC1, size: 0x8, addend: 0x0, symName: __ZNSt3__119ostreambuf_iteratorIcNS_11char_traitsIcEEEC1B8ue170006ERNS_13basic_ostreamIcS2_EE, symObjAddr: 0x4F18, symBinAddr: 0x100006A5C, symSize: 0x34 }
  - { offsetInCU: 0x16FF9, offset: 0x16FF9, size: 0x8, addend: 0x0, symName: __ZNKSt3__18ios_base5flagsB8ue170006Ev, symObjAddr: 0x4F4C, symBinAddr: 0x100006A90, symSize: 0x18 }
  - { offsetInCU: 0x17021, offset: 0x17021, size: 0x8, addend: 0x0, symName: __ZNKSt3__19basic_iosIcNS_11char_traitsIcEEE4fillB8ue170006Ev, symObjAddr: 0x4F64, symBinAddr: 0x100006AA8, symSize: 0x64 }
  - { offsetInCU: 0x17049, offset: 0x17049, size: 0x8, addend: 0x0, symName: __ZNKSt3__119ostreambuf_iteratorIcNS_11char_traitsIcEEE6failedB8ue170006Ev, symObjAddr: 0x4FC8, symBinAddr: 0x100006B0C, symSize: 0x24 }
  - { offsetInCU: 0x1706F, offset: 0x1706F, size: 0x8, addend: 0x0, symName: __ZNSt3__19basic_iosIcNS_11char_traitsIcEEE8setstateB8ue170006Ej, symObjAddr: 0x4FEC, symBinAddr: 0x100006B30, symSize: 0x2C }
  - { offsetInCU: 0x170A4, offset: 0x170A4, size: 0x8, addend: 0x0, symName: __ZNKSt3__18ios_base5widthB8ue170006Ev, symObjAddr: 0x5018, symBinAddr: 0x100006B5C, symSize: 0x18 }
  - { offsetInCU: 0x170CC, offset: 0x170CC, size: 0x8, addend: 0x0, symName: __ZNSt3__115basic_streambufIcNS_11char_traitsIcEEE5sputnB8ue170006EPKcl, symObjAddr: 0x5030, symBinAddr: 0x100006B74, symSize: 0x3C }
  - { offsetInCU: 0x1710E, offset: 0x1710E, size: 0x8, addend: 0x0, symName: __ZNSt3__112basic_stringIcNS_11char_traitsIcEENS_9allocatorIcEEEC1B8ue170006Emc, symObjAddr: 0x506C, symBinAddr: 0x100006BB0, symSize: 0x3C }
  - { offsetInCU: 0x17156, offset: 0x17156, size: 0x8, addend: 0x0, symName: __ZNSt3__112basic_stringIcNS_11char_traitsIcEENS_9allocatorIcEEE4dataB8ue170006Ev, symObjAddr: 0x50A8, symBinAddr: 0x100006BEC, symSize: 0x28 }
  - { offsetInCU: 0x1717C, offset: 0x1717C, size: 0x8, addend: 0x0, symName: __ZNSt3__18ios_base5widthB8ue170006El, symObjAddr: 0x50D0, symBinAddr: 0x100006C14, symSize: 0x2C }
  - { offsetInCU: 0x171C2, offset: 0x171C2, size: 0x8, addend: 0x0, symName: __ZNSt3__112basic_stringIcNS_11char_traitsIcEENS_9allocatorIcEEEC2B8ue170006Emc, symObjAddr: 0x50FC, symBinAddr: 0x100006C40, symSize: 0x4C }
  - { offsetInCU: 0x1720A, offset: 0x1720A, size: 0x8, addend: 0x0, symName: __ZNSt3__117__compressed_pairINS_12basic_stringIcNS_11char_traitsIcEENS_9allocatorIcEEE5__repES5_EC1B8ue170006INS_18__default_init_tagESA_EEOT_OT0_, symObjAddr: 0x5148, symBinAddr: 0x100006C8C, symSize: 0x3C }
  - { offsetInCU: 0x17262, offset: 0x17262, size: 0x8, addend: 0x0, symName: __ZNSt3__117__compressed_pairINS_12basic_stringIcNS_11char_traitsIcEENS_9allocatorIcEEE5__repES5_EC2B8ue170006INS_18__default_init_tagESA_EEOT_OT0_, symObjAddr: 0x5184, symBinAddr: 0x100006CC8, symSize: 0x3C }
  - { offsetInCU: 0x172BA, offset: 0x172BA, size: 0x8, addend: 0x0, symName: __ZNSt3__122__compressed_pair_elemINS_12basic_stringIcNS_11char_traitsIcEENS_9allocatorIcEEE5__repELi0ELb0EEC2B8ue170006ENS_18__default_init_tagE, symObjAddr: 0x51C0, symBinAddr: 0x100006D04, symSize: 0x14 }
  - { offsetInCU: 0x172EF, offset: 0x172EF, size: 0x8, addend: 0x0, symName: __ZNSt3__122__compressed_pair_elemINS_9allocatorIcEELi1ELb1EEC2B8ue170006ENS_18__default_init_tagE, symObjAddr: 0x51D4, symBinAddr: 0x100006D18, symSize: 0x2C }
  - { offsetInCU: 0x17324, offset: 0x17324, size: 0x8, addend: 0x0, symName: __ZNSt3__19allocatorIcEC2B8ue170006Ev, symObjAddr: 0x5200, symBinAddr: 0x100006D44, symSize: 0x2C }
  - { offsetInCU: 0x1734E, offset: 0x1734E, size: 0x8, addend: 0x0, symName: __ZNSt3__116__non_trivial_ifILb1ENS_9allocatorIcEEEC2B8ue170006Ev, symObjAddr: 0x522C, symBinAddr: 0x100006D70, symSize: 0x14 }
  - { offsetInCU: 0x17378, offset: 0x17378, size: 0x8, addend: 0x0, symName: __ZNSt3__112basic_stringIcNS_11char_traitsIcEENS_9allocatorIcEEE13__get_pointerB8ue170006Ev, symObjAddr: 0x5254, symBinAddr: 0x100006D98, symSize: 0x54 }
  - { offsetInCU: 0x1739E, offset: 0x1739E, size: 0x8, addend: 0x0, symName: __ZNKSt3__112basic_stringIcNS_11char_traitsIcEENS_9allocatorIcEEE9__is_longB8ue170006Ev, symObjAddr: 0x52A8, symBinAddr: 0x100006DEC, symSize: 0x38 }
  - { offsetInCU: 0x173C4, offset: 0x173C4, size: 0x8, addend: 0x0, symName: __ZNSt3__112basic_stringIcNS_11char_traitsIcEENS_9allocatorIcEEE18__get_long_pointerB8ue170006Ev, symObjAddr: 0x52E0, symBinAddr: 0x100006E24, symSize: 0x28 }
  - { offsetInCU: 0x173EA, offset: 0x173EA, size: 0x8, addend: 0x0, symName: __ZNSt3__112basic_stringIcNS_11char_traitsIcEENS_9allocatorIcEEE19__get_short_pointerB8ue170006Ev, symObjAddr: 0x5308, symBinAddr: 0x100006E4C, symSize: 0x28 }
  - { offsetInCU: 0x17410, offset: 0x17410, size: 0x8, addend: 0x0, symName: __ZNKSt3__117__compressed_pairINS_12basic_stringIcNS_11char_traitsIcEENS_9allocatorIcEEE5__repES5_E5firstB8ue170006Ev, symObjAddr: 0x5330, symBinAddr: 0x100006E74, symSize: 0x24 }
  - { offsetInCU: 0x17436, offset: 0x17436, size: 0x8, addend: 0x0, symName: __ZNKSt3__122__compressed_pair_elemINS_12basic_stringIcNS_11char_traitsIcEENS_9allocatorIcEEE5__repELi0ELb0EE5__getB8ue170006Ev, symObjAddr: 0x5354, symBinAddr: 0x100006E98, symSize: 0x14 }
  - { offsetInCU: 0x1745C, offset: 0x1745C, size: 0x8, addend: 0x0, symName: __ZNSt3__117__compressed_pairINS_12basic_stringIcNS_11char_traitsIcEENS_9allocatorIcEEE5__repES5_E5firstB8ue170006Ev, symObjAddr: 0x5368, symBinAddr: 0x100006EAC, symSize: 0x24 }
  - { offsetInCU: 0x17482, offset: 0x17482, size: 0x8, addend: 0x0, symName: __ZNSt3__122__compressed_pair_elemINS_12basic_stringIcNS_11char_traitsIcEENS_9allocatorIcEEE5__repELi0ELb0EE5__getB8ue170006Ev, symObjAddr: 0x538C, symBinAddr: 0x100006ED0, symSize: 0x14 }
  - { offsetInCU: 0x174A8, offset: 0x174A8, size: 0x8, addend: 0x0, symName: __ZNSt3__114pointer_traitsIPcE10pointer_toB8ue170006ERc, symObjAddr: 0x53A0, symBinAddr: 0x100006EE4, symSize: 0x14 }
  - { offsetInCU: 0x174CB, offset: 0x174CB, size: 0x8, addend: 0x0, symName: __ZNSt3__119ostreambuf_iteratorIcNS_11char_traitsIcEEEC2B8ue170006ERNS_13basic_ostreamIcS2_EE, symObjAddr: 0x53B4, symBinAddr: 0x100006EF8, symSize: 0x54 }
  - { offsetInCU: 0x17503, offset: 0x17503, size: 0x8, addend: 0x0, symName: __ZNKSt3__19basic_iosIcNS_11char_traitsIcEEE5rdbufB8ue170006Ev, symObjAddr: 0x5408, symBinAddr: 0x100006F4C, symSize: 0x24 }
  - { offsetInCU: 0x1752B, offset: 0x1752B, size: 0x8, addend: 0x0, symName: __ZNKSt3__18ios_base5rdbufB8ue170006Ev, symObjAddr: 0x542C, symBinAddr: 0x100006F70, symSize: 0x18 }
  - { offsetInCU: 0x17551, offset: 0x17551, size: 0x8, addend: 0x0, symName: __ZNSt3__111char_traitsIcE11eq_int_typeB8ue170006Eii, symObjAddr: 0x5444, symBinAddr: 0x100006F88, symSize: 0x28 }
  - { offsetInCU: 0x17584, offset: 0x17584, size: 0x8, addend: 0x0, symName: __ZNSt3__111char_traitsIcE3eofB8ue170006Ev, symObjAddr: 0x546C, symBinAddr: 0x100006FB0, symSize: 0x8 }
  - { offsetInCU: 0x17598, offset: 0x17598, size: 0x8, addend: 0x0, symName: __ZNKSt3__19basic_iosIcNS_11char_traitsIcEEE5widenB8ue170006Ec, symObjAddr: 0x5474, symBinAddr: 0x100006FB8, symSize: 0x84 }
  - { offsetInCU: 0x17601, offset: 0x17601, size: 0x8, addend: 0x0, symName: __ZNKSt3__15ctypeIcE5widenB8ue170006Ec, symObjAddr: 0x5524, symBinAddr: 0x100007068, symSize: 0x38 }
  - { offsetInCU: 0x17636, offset: 0x17636, size: 0x8, addend: 0x0, symName: __ZNSt3__18ios_base8setstateB8ue170006Ej, symObjAddr: 0x555C, symBinAddr: 0x1000070A0, symSize: 0x34 }
  - { offsetInCU: 0x1766D, offset: 0x1766D, size: 0x8, addend: 0x0, symName: __ZNSt3__112basic_stringIcNS_11char_traitsIcEENS_9allocatorIcEEEC1B8ue170006EOS5_, symObjAddr: 0x55B4, symBinAddr: 0x1000070F8, symSize: 0x34 }
  - { offsetInCU: 0x176A6, offset: 0x176A6, size: 0x8, addend: 0x0, symName: __ZNSt3__112basic_stringIcNS_11char_traitsIcEENS_9allocatorIcEEEC2B8ue170006EOS5_, symObjAddr: 0x55E8, symBinAddr: 0x10000712C, symSize: 0x50 }
  - { offsetInCU: 0x176DF, offset: 0x176DF, size: 0x8, addend: 0x0, symName: __ZNSt3__112basic_stringIcNS_11char_traitsIcEENS_9allocatorIcEEE14__default_initB8ue170006Ev, symObjAddr: 0x5638, symBinAddr: 0x10000717C, symSize: 0x40 }
  - { offsetInCU: 0x17705, offset: 0x17705, size: 0x8, addend: 0x0, symName: __ZNKSt3__112basic_stringIcNS_11char_traitsIcEENS_9allocatorIcEEE4dataB8ue170006Ev, symObjAddr: 0x5678, symBinAddr: 0x1000071BC, symSize: 0x28 }
  - { offsetInCU: 0x1772B, offset: 0x1772B, size: 0x8, addend: 0x0, symName: __ZNKSt3__112basic_stringIcNS_11char_traitsIcEENS_9allocatorIcEEE13__get_pointerB8ue170006Ev, symObjAddr: 0x56B4, symBinAddr: 0x1000071F8, symSize: 0x54 }
  - { offsetInCU: 0x17751, offset: 0x17751, size: 0x8, addend: 0x0, symName: __ZNKSt3__112basic_stringIcNS_11char_traitsIcEENS_9allocatorIcEEE18__get_long_pointerB8ue170006Ev, symObjAddr: 0x5708, symBinAddr: 0x10000724C, symSize: 0x28 }
  - { offsetInCU: 0x17777, offset: 0x17777, size: 0x8, addend: 0x0, symName: __ZNKSt3__112basic_stringIcNS_11char_traitsIcEENS_9allocatorIcEEE19__get_short_pointerB8ue170006Ev, symObjAddr: 0x5730, symBinAddr: 0x100007274, symSize: 0x28 }
  - { offsetInCU: 0x1779D, offset: 0x1779D, size: 0x8, addend: 0x0, symName: __ZNSt3__114pointer_traitsIPKcE10pointer_toB8ue170006ERS1_, symObjAddr: 0x5758, symBinAddr: 0x10000729C, symSize: 0x14 }
  - { offsetInCU: 0x177C0, offset: 0x177C0, size: 0x8, addend: 0x0, symName: __ZNKSt3__112basic_stringIcNS_11char_traitsIcEENS_9allocatorIcEEE4sizeB8ue170006Ev, symObjAddr: 0x576C, symBinAddr: 0x1000072B0, symSize: 0x54 }
  - { offsetInCU: 0x177E6, offset: 0x177E6, size: 0x8, addend: 0x0, symName: __ZNKSt3__112basic_stringIcNS_11char_traitsIcEENS_9allocatorIcEEE15__get_long_sizeB8ue170006Ev, symObjAddr: 0x57C0, symBinAddr: 0x100007304, symSize: 0x28 }
  - { offsetInCU: 0x1780C, offset: 0x1780C, size: 0x8, addend: 0x0, symName: __ZNKSt3__112basic_stringIcNS_11char_traitsIcEENS_9allocatorIcEEE16__get_short_sizeB8ue170006Ev, symObjAddr: 0x57E8, symBinAddr: 0x10000732C, symSize: 0x34 }
  - { offsetInCU: 0x17832, offset: 0x17832, size: 0x8, addend: 0x0, symName: __ZNSt3__112basic_stringIcNS_11char_traitsIcEENS_9allocatorIcEEEC2B8ue170006ILi0EEEPKc, symObjAddr: 0x581C, symBinAddr: 0x100007360, symSize: 0x58 }
  - { offsetInCU: 0x17871, offset: 0x17871, size: 0x8, addend: 0x0, symName: __ZNSt3__16vectorI6CircleNS_9allocatorIS1_EEEC2ERKS4_, symObjAddr: 0x5874, symBinAddr: 0x1000073B8, symSize: 0x94 }
  - { offsetInCU: 0x178B6, offset: 0x178B6, size: 0x8, addend: 0x0, symName: __ZNSt3__116allocator_traitsINS_9allocatorI6CircleEEE37select_on_container_copy_constructionB8ue170006IS3_vvEES3_RKS3_, symObjAddr: 0x5908, symBinAddr: 0x10000744C, symSize: 0x10 }
  - { offsetInCU: 0x178E5, offset: 0x178E5, size: 0x8, addend: 0x0, symName: __ZNKSt3__16vectorI6CircleNS_9allocatorIS1_EEE7__allocB8ue170006Ev, symObjAddr: 0x5918, symBinAddr: 0x10000745C, symSize: 0x28 }
  - { offsetInCU: 0x17910, offset: 0x17910, size: 0x8, addend: 0x0, symName: __ZNSt3__117__compressed_pairIP6CircleNS_9allocatorIS1_EEEC1B8ue170006IDnS4_EEOT_OT0_, symObjAddr: 0x5940, symBinAddr: 0x100007484, symSize: 0x3C }
  - { offsetInCU: 0x17968, offset: 0x17968, size: 0x8, addend: 0x0, symName: __ZNSt3__16vectorI6CircleNS_9allocatorIS1_EEE16__init_with_sizeB8ue170006IPS1_S6_EEvT_T0_m, symObjAddr: 0x597C, symBinAddr: 0x1000074C0, symSize: 0xB8 }
  - { offsetInCU: 0x179DC, offset: 0x179DC, size: 0x8, addend: 0x0, symName: __ZNKSt3__117__compressed_pairIP6CircleNS_9allocatorIS1_EEE6secondB8ue170006Ev, symObjAddr: 0x5A34, symBinAddr: 0x100007578, symSize: 0x24 }
  - { offsetInCU: 0x17A02, offset: 0x17A02, size: 0x8, addend: 0x0, symName: __ZNKSt3__122__compressed_pair_elemINS_9allocatorI6CircleEELi1ELb1EE5__getB8ue170006Ev, symObjAddr: 0x5A58, symBinAddr: 0x10000759C, symSize: 0x14 }
  - { offsetInCU: 0x17A28, offset: 0x17A28, size: 0x8, addend: 0x0, symName: __ZNSt3__117__compressed_pairIP6CircleNS_9allocatorIS1_EEEC2B8ue170006IDnS4_EEOT_OT0_, symObjAddr: 0x5A6C, symBinAddr: 0x1000075B0, symSize: 0x44 }
  - { offsetInCU: 0x17A80, offset: 0x17A80, size: 0x8, addend: 0x0, symName: __ZNSt3__122__compressed_pair_elemINS_9allocatorI6CircleEELi1ELb1EEC2B8ue170006IS3_vEEOT_, symObjAddr: 0x5AB0, symBinAddr: 0x1000075F4, symSize: 0x18 }
  - { offsetInCU: 0x17AC2, offset: 0x17AC2, size: 0x8, addend: 0x0, symName: __ZNSt3__16vectorI6CircleNS_9allocatorIS1_EEE11__vallocateB8ue170006Em, symObjAddr: 0x5B08, symBinAddr: 0x10000764C, symSize: 0xB4 }
  - { offsetInCU: 0x17B06, offset: 0x17B06, size: 0x8, addend: 0x0, symName: __ZNSt3__16vectorI6CircleNS_9allocatorIS1_EEE18__construct_at_endIPS1_S6_EEvT_T0_m, symObjAddr: 0x5BBC, symBinAddr: 0x100007700, symSize: 0x8C }
  - { offsetInCU: 0x17B7C, offset: 0x17B7C, size: 0x8, addend: 0x0, symName: __ZNSt3__128__exception_guard_exceptionsINS_6vectorI6CircleNS_9allocatorIS2_EEE16__destroy_vectorEE10__completeB8ue170006Ev, symObjAddr: 0x5C48, symBinAddr: 0x10000778C, symSize: 0x1C }
  - { offsetInCU: 0x17BA2, offset: 0x17BA2, size: 0x8, addend: 0x0, symName: __ZNSt3__128__exception_guard_exceptionsINS_6vectorI6CircleNS_9allocatorIS2_EEE16__destroy_vectorEED1B8ue170006Ev, symObjAddr: 0x5C64, symBinAddr: 0x1000077A8, symSize: 0x2C }
  - { offsetInCU: 0x17BCC, offset: 0x17BCC, size: 0x8, addend: 0x0, symName: __ZNSt3__128__exception_guard_exceptionsINS_6vectorI6CircleNS_9allocatorIS2_EEE16__destroy_vectorEEC1B8ue170006ES6_, symObjAddr: 0x5C90, symBinAddr: 0x1000077D4, symSize: 0x34 }
  - { offsetInCU: 0x17C04, offset: 0x17C04, size: 0x8, addend: 0x0, symName: __ZNSt3__128__exception_guard_exceptionsINS_6vectorI6CircleNS_9allocatorIS2_EEE16__destroy_vectorEEC2B8ue170006ES6_, symObjAddr: 0x5CC4, symBinAddr: 0x100007808, symSize: 0x24 }
  - { offsetInCU: 0x17C3C, offset: 0x17C3C, size: 0x8, addend: 0x0, symName: __ZNKSt3__16vectorI6CircleNS_9allocatorIS1_EEE8max_sizeEv, symObjAddr: 0x5CE8, symBinAddr: 0x10000782C, symSize: 0x60 }
  - { offsetInCU: 0x17C64, offset: 0x17C64, size: 0x8, addend: 0x0, symName: __ZNKSt3__16vectorI6CircleNS_9allocatorIS1_EEE20__throw_length_errorB8ue170006Ev, symObjAddr: 0x5D48, symBinAddr: 0x10000788C, symSize: 0x1C }
  - { offsetInCU: 0x17C8A, offset: 0x17C8A, size: 0x8, addend: 0x0, symName: __ZNSt3__16vectorI6CircleNS_9allocatorIS1_EEE9__end_capB8ue170006Ev, symObjAddr: 0x5DA4, symBinAddr: 0x1000078E8, symSize: 0x28 }
  - { offsetInCU: 0x17CB0, offset: 0x17CB0, size: 0x8, addend: 0x0, symName: __ZNKSt3__16vectorI6CircleNS_9allocatorIS1_EEE14__annotate_newB8ue170006Em, symObjAddr: 0x5DCC, symBinAddr: 0x100007910, symSize: 0xC8 }
  - { offsetInCU: 0x17CE5, offset: 0x17CE5, size: 0x8, addend: 0x0, symName: __ZNSt3__116allocator_traitsINS_9allocatorI6CircleEEE8max_sizeB8ue170006IS3_vEEmRKS3_, symObjAddr: 0x5EC0, symBinAddr: 0x100007A04, symSize: 0x24 }
  - { offsetInCU: 0x17D13, offset: 0x17D13, size: 0x8, addend: 0x0, symName: __ZNSt3__114numeric_limitsIlE3maxB8ue170006Ev, symObjAddr: 0x5EE4, symBinAddr: 0x100007A28, symSize: 0x14 }
  - { offsetInCU: 0x17D3B, offset: 0x17D3B, size: 0x8, addend: 0x0, symName: __ZNKSt3__16__lessIvvEclB8ue170006ImmEEbRKT_RKT0_, symObjAddr: 0x5F4C, symBinAddr: 0x100007A90, symSize: 0x34 }
  - { offsetInCU: 0x17D8F, offset: 0x17D8F, size: 0x8, addend: 0x0, symName: __ZNKSt3__19allocatorI6CircleE8max_sizeB8ue170006Ev, symObjAddr: 0x5F80, symBinAddr: 0x100007AC4, symSize: 0x18 }
  - { offsetInCU: 0x17DB5, offset: 0x17DB5, size: 0x8, addend: 0x0, symName: __ZNSt3__123__libcpp_numeric_limitsIlLb1EE3maxB8ue170006Ev, symObjAddr: 0x5F98, symBinAddr: 0x100007ADC, symSize: 0x8 }
  - { offsetInCU: 0x17DC9, offset: 0x17DC9, size: 0x8, addend: 0x0, symName: __ZNSt12length_errorC1B8ue170006EPKc, symObjAddr: 0x6004, symBinAddr: 0x100007B48, symSize: 0x34 }
  - { offsetInCU: 0x17E01, offset: 0x17E01, size: 0x8, addend: 0x0, symName: __ZNSt12length_errorC2B8ue170006EPKc, symObjAddr: 0x6038, symBinAddr: 0x100007B7C, symSize: 0x4C }
  - { offsetInCU: 0x17E39, offset: 0x17E39, size: 0x8, addend: 0x0, symName: __ZNSt3__19allocatorI6CircleE8allocateB8ue170006Em, symObjAddr: 0x6084, symBinAddr: 0x100007BC8, symSize: 0x5C }
  - { offsetInCU: 0x17E6D, offset: 0x17E6D, size: 0x8, addend: 0x0, symName: __ZNSt3__117__compressed_pairIP6CircleNS_9allocatorIS1_EEE5firstB8ue170006Ev, symObjAddr: 0x61C4, symBinAddr: 0x100007D08, symSize: 0x24 }
  - { offsetInCU: 0x17E93, offset: 0x17E93, size: 0x8, addend: 0x0, symName: __ZNSt3__122__compressed_pair_elemIP6CircleLi0ELb0EE5__getB8ue170006Ev, symObjAddr: 0x61E8, symBinAddr: 0x100007D2C, symSize: 0x14 }
  - { offsetInCU: 0x17ED2, offset: 0x17ED2, size: 0x8, addend: 0x0, symName: __ZNSt3__16vectorI6CircleNS_9allocatorIS1_EEE21_ConstructTransactionC1B8ue170006ERS4_m, symObjAddr: 0x61FC, symBinAddr: 0x100007D40, symSize: 0x3C }
  - { offsetInCU: 0x17F1A, offset: 0x17F1A, size: 0x8, addend: 0x0, symName: __ZNSt3__16vectorI6CircleNS_9allocatorIS1_EEE21_ConstructTransactionD1B8ue170006Ev, symObjAddr: 0x62B8, symBinAddr: 0x100007DFC, symSize: 0x2C }
  - { offsetInCU: 0x17F44, offset: 0x17F44, size: 0x8, addend: 0x0, symName: __ZNSt3__16vectorI6CircleNS_9allocatorIS1_EEE21_ConstructTransactionC2B8ue170006ERS4_m, symObjAddr: 0x62E4, symBinAddr: 0x100007E28, symSize: 0x4C }
  - { offsetInCU: 0x17FAA, offset: 0x17FAA, size: 0x8, addend: 0x0, symName: __ZNSt3__14pairIP6CircleS2_EC1B8ue170006IS2_S2_LPv0EEEOT_OT0_, symObjAddr: 0x6460, symBinAddr: 0x100007FA4, symSize: 0x3C }
  - { offsetInCU: 0x18008, offset: 0x18008, size: 0x8, addend: 0x0, symName: __ZNSt3__14pairIP6CircleS2_EC2B8ue170006IS2_S2_LPv0EEEOT_OT0_, symObjAddr: 0x649C, symBinAddr: 0x100007FE0, symSize: 0x34 }
  - { offsetInCU: 0x18070, offset: 0x18070, size: 0x8, addend: 0x0, symName: __ZNKSt3__114__copy_trivialclB8ue170006I6CircleS2_Li0EEENS_4pairIPT_PT0_EES5_S5_S7_, symObjAddr: 0x664C, symBinAddr: 0x100008190, symSize: 0x48 }
  - { offsetInCU: 0x180D8, offset: 0x180D8, size: 0x8, addend: 0x0, symName: __ZNSt3__14pairIP6CircleS2_EC1B8ue170006IRS2_S2_LPv0EEEOT_OT0_, symObjAddr: 0x67E8, symBinAddr: 0x10000832C, symSize: 0x3C }
  - { offsetInCU: 0x18136, offset: 0x18136, size: 0x8, addend: 0x0, symName: __ZNSt3__14pairIP6CircleS2_EC2B8ue170006IRS2_S2_LPv0EEEOT_OT0_, symObjAddr: 0x6824, symBinAddr: 0x100008368, symSize: 0x34 }
  - { offsetInCU: 0x18194, offset: 0x18194, size: 0x8, addend: 0x0, symName: __ZNSt3__118__unwrap_iter_implIP6CircleLb1EE8__unwrapB8ue170006ES2_, symObjAddr: 0x6858, symBinAddr: 0x10000839C, symSize: 0x24 }
  - { offsetInCU: 0x181B7, offset: 0x181B7, size: 0x8, addend: 0x0, symName: __ZNSt3__118__unwrap_iter_implIP6CircleLb1EE8__rewrapB8ue170006ES2_S2_, symObjAddr: 0x687C, symBinAddr: 0x1000083C0, symSize: 0x58 }
  - { offsetInCU: 0x181E8, offset: 0x181E8, size: 0x8, addend: 0x0, symName: __ZNSt3__16vectorI6CircleNS_9allocatorIS1_EEE21_ConstructTransactionD2B8ue170006Ev, symObjAddr: 0x68D4, symBinAddr: 0x100008418, symSize: 0x20 }
  - { offsetInCU: 0x18212, offset: 0x18212, size: 0x8, addend: 0x0, symName: __ZNSt3__128__exception_guard_exceptionsINS_6vectorI6CircleNS_9allocatorIS2_EEE16__destroy_vectorEED2B8ue170006Ev, symObjAddr: 0x68F4, symBinAddr: 0x100008438, symSize: 0x48 }
  - { offsetInCU: 0x1823C, offset: 0x1823C, size: 0x8, addend: 0x0, symName: __ZNSt3__16vectorI6CircleNS_9allocatorIS1_EEE22__construct_one_at_endB8ue170006IJRKS1_EEEvDpOT_, symObjAddr: 0x693C, symBinAddr: 0x100008480, symSize: 0x90 }
  - { offsetInCU: 0x1828B, offset: 0x1828B, size: 0x8, addend: 0x0, symName: __ZNSt3__16vectorI6CircleNS_9allocatorIS1_EEE21__push_back_slow_pathIRKS1_EEvOT_, symObjAddr: 0x69CC, symBinAddr: 0x100008510, symSize: 0xD8 }
  - { offsetInCU: 0x182E9, offset: 0x182E9, size: 0x8, addend: 0x0, symName: __ZNSt3__116allocator_traitsINS_9allocatorI6CircleEEE9constructB8ue170006IS2_JRKS2_EvEEvRS3_PT_DpOT0_, symObjAddr: 0x6AA4, symBinAddr: 0x1000085E8, symSize: 0x34 }
  - { offsetInCU: 0x18340, offset: 0x18340, size: 0x8, addend: 0x0, symName: __ZNSt3__19allocatorI6CircleE9constructB8ue170006IS1_JRKS1_EEEvPT_DpOT0_, symObjAddr: 0x6AD8, symBinAddr: 0x10000861C, symSize: 0x30 }
  - { offsetInCU: 0x18396, offset: 0x18396, size: 0x8, addend: 0x0, symName: __ZNKSt3__16vectorI6CircleNS_9allocatorIS1_EEE11__recommendB8ue170006Em, symObjAddr: 0x6B08, symBinAddr: 0x10000864C, symSize: 0xB4 }
  - { offsetInCU: 0x183EB, offset: 0x183EB, size: 0x8, addend: 0x0, symName: __ZNSt3__114__split_bufferI6CircleRNS_9allocatorIS1_EEEC1EmmS4_, symObjAddr: 0x6BBC, symBinAddr: 0x100008700, symSize: 0x44 }
  - { offsetInCU: 0x18441, offset: 0x18441, size: 0x8, addend: 0x0, symName: __ZNSt3__114__split_bufferI6CircleRNS_9allocatorIS1_EEED1Ev, symObjAddr: 0x6D10, symBinAddr: 0x100008854, symSize: 0x2C }
  - { offsetInCU: 0x1846D, offset: 0x1846D, size: 0x8, addend: 0x0, symName: __ZNSt3__114__split_bufferI6CircleRNS_9allocatorIS1_EEEC2EmmS4_, symObjAddr: 0x6DBC, symBinAddr: 0x100008900, symSize: 0xE0 }
  - { offsetInCU: 0x184E0, offset: 0x184E0, size: 0x8, addend: 0x0, symName: __ZNSt3__117__compressed_pairIP6CircleRNS_9allocatorIS1_EEEC1B8ue170006IDnS5_EEOT_OT0_, symObjAddr: 0x6E9C, symBinAddr: 0x1000089E0, symSize: 0x3C }
  - { offsetInCU: 0x18538, offset: 0x18538, size: 0x8, addend: 0x0, symName: __ZNSt3__114__split_bufferI6CircleRNS_9allocatorIS1_EEE7__allocB8ue170006Ev, symObjAddr: 0x6ED8, symBinAddr: 0x100008A1C, symSize: 0x28 }
  - { offsetInCU: 0x1855E, offset: 0x1855E, size: 0x8, addend: 0x0, symName: __ZNSt3__114__split_bufferI6CircleRNS_9allocatorIS1_EEE9__end_capB8ue170006Ev, symObjAddr: 0x6F00, symBinAddr: 0x100008A44, symSize: 0x28 }
  - { offsetInCU: 0x18584, offset: 0x18584, size: 0x8, addend: 0x0, symName: __ZNSt3__117__compressed_pairIP6CircleRNS_9allocatorIS1_EEEC2B8ue170006IDnS5_EEOT_OT0_, symObjAddr: 0x6F28, symBinAddr: 0x100008A6C, symSize: 0x48 }
  - { offsetInCU: 0x185DC, offset: 0x185DC, size: 0x8, addend: 0x0, symName: __ZNSt3__122__compressed_pair_elemIRNS_9allocatorI6CircleEELi1ELb0EEC2B8ue170006IS4_vEEOT_, symObjAddr: 0x6F70, symBinAddr: 0x100008AB4, symSize: 0x20 }
  - { offsetInCU: 0x1861E, offset: 0x1861E, size: 0x8, addend: 0x0, symName: __ZNSt3__117__compressed_pairIP6CircleRNS_9allocatorIS1_EEE6secondB8ue170006Ev, symObjAddr: 0x6F90, symBinAddr: 0x100008AD4, symSize: 0x28 }
  - { offsetInCU: 0x18644, offset: 0x18644, size: 0x8, addend: 0x0, symName: __ZNSt3__122__compressed_pair_elemIRNS_9allocatorI6CircleEELi1ELb0EE5__getB8ue170006Ev, symObjAddr: 0x6FB8, symBinAddr: 0x100008AFC, symSize: 0x18 }
  - { offsetInCU: 0x1866A, offset: 0x1866A, size: 0x8, addend: 0x0, symName: __ZNSt3__117__compressed_pairIP6CircleRNS_9allocatorIS1_EEE5firstB8ue170006Ev, symObjAddr: 0x6FD0, symBinAddr: 0x100008B14, symSize: 0x24 }
  - { offsetInCU: 0x18690, offset: 0x18690, size: 0x8, addend: 0x0, symName: __ZNSt3__116reverse_iteratorIP6CircleEC1B8ue170006ES2_, symObjAddr: 0x706C, symBinAddr: 0x100008BB0, symSize: 0x34 }
  - { offsetInCU: 0x186C8, offset: 0x186C8, size: 0x8, addend: 0x0, symName: __ZNKSt3__116reverse_iteratorIP6CircleE4baseB8ue170006Ev, symObjAddr: 0x70A0, symBinAddr: 0x100008BE4, symSize: 0x18 }
  - { offsetInCU: 0x18711, offset: 0x18711, size: 0x8, addend: 0x0, symName: __ZNKSt3__111__move_loopINS_17_ClassicAlgPolicyEEclB8ue170006INS_16reverse_iteratorIP6CircleEES7_S7_EENS_4pairIT_T1_EES9_T0_SA_, symObjAddr: 0x73E4, symBinAddr: 0x100008F28, symSize: 0xA8 }
  - { offsetInCU: 0x18781, offset: 0x18781, size: 0x8, addend: 0x0, symName: __ZNSt3__18_IterOpsINS_17_ClassicAlgPolicyEE11__iter_moveB8ue170006IRNS_16reverse_iteratorIP6CircleEEEENS_9enable_ifIXsr12is_referenceIDTdeclsr3stdE7declvalIRT_EEEEE5valueEDTclsr3stdE4movedeclsr3stdE7declvalISB_EEEEE4typeEOSA_, symObjAddr: 0x7620, symBinAddr: 0x100009164, symSize: 0x28 }
  - { offsetInCU: 0x187AD, offset: 0x187AD, size: 0x8, addend: 0x0, symName: __ZNKSt3__116reverse_iteratorIP6CircleEdeB8ue170006Ev, symObjAddr: 0x7648, symBinAddr: 0x10000918C, symSize: 0x28 }
  - { offsetInCU: 0x187E1, offset: 0x187E1, size: 0x8, addend: 0x0, symName: __ZNSt3__116reverse_iteratorIP6CircleEppB8ue170006Ev, symObjAddr: 0x7670, symBinAddr: 0x1000091B4, symSize: 0x20 }
  - { offsetInCU: 0x18807, offset: 0x18807, size: 0x8, addend: 0x0, symName: __ZNSt3__18_IterOpsINS_17_ClassicAlgPolicyEE25__validate_iter_referenceB8ue170006IRNS_16reverse_iteratorIP6CircleEEEEvv, symObjAddr: 0x7690, symBinAddr: 0x1000091D4, symSize: 0x4 }
  - { offsetInCU: 0x18825, offset: 0x18825, size: 0x8, addend: 0x0, symName: __ZNSt3__118__unwrap_iter_implINS_16reverse_iteratorIP6CircleEELb0EE8__unwrapB8ue170006ES4_, symObjAddr: 0x7694, symBinAddr: 0x1000091D8, symSize: 0x24 }
  - { offsetInCU: 0x1884D, offset: 0x1884D, size: 0x8, addend: 0x0, symName: __ZNSt3__14pairINS_16reverse_iteratorIP6CircleEES4_EC1B8ue170006IS4_S4_LPv0EEEOT_OT0_, symObjAddr: 0x76B8, symBinAddr: 0x1000091FC, symSize: 0x3C }
  - { offsetInCU: 0x188AB, offset: 0x188AB, size: 0x8, addend: 0x0, symName: __ZNSt3__14pairINS_16reverse_iteratorIP6CircleEES4_EC2B8ue170006IS4_S4_LPv0EEEOT_OT0_, symObjAddr: 0x76F4, symBinAddr: 0x100009238, symSize: 0x34 }
  - { offsetInCU: 0x18909, offset: 0x18909, size: 0x8, addend: 0x0, symName: __ZNSt3__118__unwrap_iter_implINS_16reverse_iteratorIP6CircleEELb0EE8__rewrapB8ue170006ES4_S4_, symObjAddr: 0x7728, symBinAddr: 0x10000926C, symSize: 0x2C }
  - { offsetInCU: 0x18937, offset: 0x18937, size: 0x8, addend: 0x0, symName: __ZNSt3__116reverse_iteratorIP6CircleEC2B8ue170006ES2_, symObjAddr: 0x7754, symBinAddr: 0x100009298, symSize: 0x28 }
  - { offsetInCU: 0x1896F, offset: 0x1896F, size: 0x8, addend: 0x0, symName: __ZNSt3__114__split_bufferI6CircleRNS_9allocatorIS1_EEED2Ev, symObjAddr: 0x777C, symBinAddr: 0x1000092C0, symSize: 0x8C }
  - { offsetInCU: 0x1899B, offset: 0x1899B, size: 0x8, addend: 0x0, symName: __ZNSt3__114__split_bufferI6CircleRNS_9allocatorIS1_EEE5clearB8ue170006Ev, symObjAddr: 0x7808, symBinAddr: 0x10000934C, symSize: 0x28 }
  - { offsetInCU: 0x189C1, offset: 0x189C1, size: 0x8, addend: 0x0, symName: __ZNKSt3__114__split_bufferI6CircleRNS_9allocatorIS1_EEE8capacityB8ue170006Ev, symObjAddr: 0x7830, symBinAddr: 0x100009374, symSize: 0x40 }
  - { offsetInCU: 0x189E7, offset: 0x189E7, size: 0x8, addend: 0x0, symName: __ZNSt3__114__split_bufferI6CircleRNS_9allocatorIS1_EEE17__destruct_at_endB8ue170006EPS1_, symObjAddr: 0x7870, symBinAddr: 0x1000093B4, symSize: 0x2C }
  - { offsetInCU: 0x18A1B, offset: 0x18A1B, size: 0x8, addend: 0x0, symName: __ZNSt3__114__split_bufferI6CircleRNS_9allocatorIS1_EEE17__destruct_at_endB8ue170006EPS1_NS_17integral_constantIbLb0EEE, symObjAddr: 0x789C, symBinAddr: 0x1000093E0, symSize: 0x80 }
  - { offsetInCU: 0x18A5C, offset: 0x18A5C, size: 0x8, addend: 0x0, symName: __ZNKSt3__114__split_bufferI6CircleRNS_9allocatorIS1_EEE9__end_capB8ue170006Ev, symObjAddr: 0x791C, symBinAddr: 0x100009460, symSize: 0x28 }
  - { offsetInCU: 0x18A82, offset: 0x18A82, size: 0x8, addend: 0x0, symName: __ZNKSt3__117__compressed_pairIP6CircleRNS_9allocatorIS1_EEE5firstB8ue170006Ev, symObjAddr: 0x7944, symBinAddr: 0x100009488, symSize: 0x24 }
  - { offsetInCU: 0x18AA8, offset: 0x18AA8, size: 0x8, addend: 0x0, symName: __ZNSt3__16vectorIP5EnemyNS_9allocatorIS2_EEE9__end_capB8ue170006Ev, symObjAddr: 0x7968, symBinAddr: 0x1000094AC, symSize: 0x28 }
  - { offsetInCU: 0x18ACE, offset: 0x18ACE, size: 0x8, addend: 0x0, symName: __ZNSt3__16vectorIP5EnemyNS_9allocatorIS2_EEE22__construct_one_at_endB8ue170006IJRKS2_EEEvDpOT_, symObjAddr: 0x7990, symBinAddr: 0x1000094D4, symSize: 0x90 }
  - { offsetInCU: 0x18B1D, offset: 0x18B1D, size: 0x8, addend: 0x0, symName: __ZNSt3__16vectorIP5EnemyNS_9allocatorIS2_EEE21__push_back_slow_pathIRKS2_EEvOT_, symObjAddr: 0x7A20, symBinAddr: 0x100009564, symSize: 0xD8 }
  - { offsetInCU: 0x18B7B, offset: 0x18B7B, size: 0x8, addend: 0x0, symName: __ZNSt3__117__compressed_pairIPP5EnemyNS_9allocatorIS2_EEE5firstB8ue170006Ev, symObjAddr: 0x7AF8, symBinAddr: 0x10000963C, symSize: 0x24 }
  - { offsetInCU: 0x18BA1, offset: 0x18BA1, size: 0x8, addend: 0x0, symName: __ZNSt3__122__compressed_pair_elemIPP5EnemyLi0ELb0EE5__getB8ue170006Ev, symObjAddr: 0x7B1C, symBinAddr: 0x100009660, symSize: 0x14 }
  - { offsetInCU: 0x18BE0, offset: 0x18BE0, size: 0x8, addend: 0x0, symName: __ZNSt3__16vectorIP5EnemyNS_9allocatorIS2_EEE21_ConstructTransactionC1B8ue170006ERS5_m, symObjAddr: 0x7B30, symBinAddr: 0x100009674, symSize: 0x3C }
  - { offsetInCU: 0x18C28, offset: 0x18C28, size: 0x8, addend: 0x0, symName: __ZNSt3__116allocator_traitsINS_9allocatorIP5EnemyEEE9constructB8ue170006IS3_JRKS3_EvEEvRS4_PT_DpOT0_, symObjAddr: 0x7B6C, symBinAddr: 0x1000096B0, symSize: 0x34 }
  - { offsetInCU: 0x18C7F, offset: 0x18C7F, size: 0x8, addend: 0x0, symName: __ZNSt3__16vectorIP5EnemyNS_9allocatorIS2_EEE21_ConstructTransactionD1B8ue170006Ev, symObjAddr: 0x7BA0, symBinAddr: 0x1000096E4, symSize: 0x2C }
  - { offsetInCU: 0x18CA9, offset: 0x18CA9, size: 0x8, addend: 0x0, symName: __ZNSt3__16vectorIP5EnemyNS_9allocatorIS2_EEE21_ConstructTransactionC2B8ue170006ERS5_m, symObjAddr: 0x7BCC, symBinAddr: 0x100009710, symSize: 0x44 }
  - { offsetInCU: 0x18CF1, offset: 0x18CF1, size: 0x8, addend: 0x0, symName: __ZNSt3__19allocatorIP5EnemyE9constructB8ue170006IS2_JRKS2_EEEvPT_DpOT0_, symObjAddr: 0x7C10, symBinAddr: 0x100009754, symSize: 0x28 }
  - { offsetInCU: 0x18D47, offset: 0x18D47, size: 0x8, addend: 0x0, symName: __ZNSt3__16vectorIP5EnemyNS_9allocatorIS2_EEE21_ConstructTransactionD2B8ue170006Ev, symObjAddr: 0x7C38, symBinAddr: 0x10000977C, symSize: 0x20 }
  - { offsetInCU: 0x18D71, offset: 0x18D71, size: 0x8, addend: 0x0, symName: __ZNKSt3__16vectorIP5EnemyNS_9allocatorIS2_EEE11__recommendB8ue170006Em, symObjAddr: 0x7C58, symBinAddr: 0x10000979C, symSize: 0xB4 }
  - { offsetInCU: 0x18DC6, offset: 0x18DC6, size: 0x8, addend: 0x0, symName: __ZNSt3__114__split_bufferIP5EnemyRNS_9allocatorIS2_EEEC1EmmS5_, symObjAddr: 0x7D0C, symBinAddr: 0x100009850, symSize: 0x44 }
  - { offsetInCU: 0x18E1C, offset: 0x18E1C, size: 0x8, addend: 0x0, symName: __ZNSt3__114__split_bufferIP5EnemyRNS_9allocatorIS2_EEED1Ev, symObjAddr: 0x7E60, symBinAddr: 0x1000099A4, symSize: 0x2C }
  - { offsetInCU: 0x18E48, offset: 0x18E48, size: 0x8, addend: 0x0, symName: __ZNKSt3__16vectorIP5EnemyNS_9allocatorIS2_EEE8max_sizeEv, symObjAddr: 0x7E8C, symBinAddr: 0x1000099D0, symSize: 0x60 }
  - { offsetInCU: 0x18E70, offset: 0x18E70, size: 0x8, addend: 0x0, symName: __ZNKSt3__16vectorIP5EnemyNS_9allocatorIS2_EEE20__throw_length_errorB8ue170006Ev, symObjAddr: 0x7EEC, symBinAddr: 0x100009A30, symSize: 0x1C }
  - { offsetInCU: 0x18EA0, offset: 0x18EA0, size: 0x8, addend: 0x0, symName: __ZNSt3__116allocator_traitsINS_9allocatorIP5EnemyEEE8max_sizeB8ue170006IS4_vEEmRKS4_, symObjAddr: 0x7F08, symBinAddr: 0x100009A4C, symSize: 0x24 }
  - { offsetInCU: 0x18ECE, offset: 0x18ECE, size: 0x8, addend: 0x0, symName: __ZNKSt3__16vectorIP5EnemyNS_9allocatorIS2_EEE7__allocB8ue170006Ev, symObjAddr: 0x7F2C, symBinAddr: 0x100009A70, symSize: 0x28 }
  - { offsetInCU: 0x18EF4, offset: 0x18EF4, size: 0x8, addend: 0x0, symName: __ZNKSt3__19allocatorIP5EnemyE8max_sizeB8ue170006Ev, symObjAddr: 0x7F54, symBinAddr: 0x100009A98, symSize: 0x14 }
  - { offsetInCU: 0x18F1A, offset: 0x18F1A, size: 0x8, addend: 0x0, symName: __ZNKSt3__117__compressed_pairIPP5EnemyNS_9allocatorIS2_EEE6secondB8ue170006Ev, symObjAddr: 0x7F68, symBinAddr: 0x100009AAC, symSize: 0x24 }
  - { offsetInCU: 0x18F40, offset: 0x18F40, size: 0x8, addend: 0x0, symName: __ZNKSt3__122__compressed_pair_elemINS_9allocatorIP5EnemyEELi1ELb1EE5__getB8ue170006Ev, symObjAddr: 0x7F8C, symBinAddr: 0x100009AD0, symSize: 0x14 }
  - { offsetInCU: 0x18F66, offset: 0x18F66, size: 0x8, addend: 0x0, symName: __ZNSt3__114__split_bufferIP5EnemyRNS_9allocatorIS2_EEEC2EmmS5_, symObjAddr: 0x7FA0, symBinAddr: 0x100009AE4, symSize: 0xD4 }
  - { offsetInCU: 0x18FD9, offset: 0x18FD9, size: 0x8, addend: 0x0, symName: __ZNSt3__117__compressed_pairIPP5EnemyRNS_9allocatorIS2_EEEC1B8ue170006IDnS6_EEOT_OT0_, symObjAddr: 0x8074, symBinAddr: 0x100009BB8, symSize: 0x3C }
  - { offsetInCU: 0x19031, offset: 0x19031, size: 0x8, addend: 0x0, symName: __ZNSt3__114__split_bufferIP5EnemyRNS_9allocatorIS2_EEE7__allocB8ue170006Ev, symObjAddr: 0x80F0, symBinAddr: 0x100009C34, symSize: 0x28 }
  - { offsetInCU: 0x19057, offset: 0x19057, size: 0x8, addend: 0x0, symName: __ZNSt3__114__split_bufferIP5EnemyRNS_9allocatorIS2_EEE9__end_capB8ue170006Ev, symObjAddr: 0x8118, symBinAddr: 0x100009C5C, symSize: 0x28 }
  - { offsetInCU: 0x1907D, offset: 0x1907D, size: 0x8, addend: 0x0, symName: __ZNSt3__117__compressed_pairIPP5EnemyRNS_9allocatorIS2_EEEC2B8ue170006IDnS6_EEOT_OT0_, symObjAddr: 0x8140, symBinAddr: 0x100009C84, symSize: 0x48 }
  - { offsetInCU: 0x190D5, offset: 0x190D5, size: 0x8, addend: 0x0, symName: __ZNSt3__122__compressed_pair_elemIRNS_9allocatorIP5EnemyEELi1ELb0EEC2B8ue170006IS5_vEEOT_, symObjAddr: 0x8188, symBinAddr: 0x100009CCC, symSize: 0x20 }
  - { offsetInCU: 0x19117, offset: 0x19117, size: 0x8, addend: 0x0, symName: __ZNSt3__19allocatorIP5EnemyE8allocateB8ue170006Em, symObjAddr: 0x81A8, symBinAddr: 0x100009CEC, symSize: 0x58 }
  - { offsetInCU: 0x1914B, offset: 0x1914B, size: 0x8, addend: 0x0, symName: __ZNSt3__117__compressed_pairIPP5EnemyRNS_9allocatorIS2_EEE6secondB8ue170006Ev, symObjAddr: 0x8200, symBinAddr: 0x100009D44, symSize: 0x28 }
  - { offsetInCU: 0x19171, offset: 0x19171, size: 0x8, addend: 0x0, symName: __ZNSt3__122__compressed_pair_elemIRNS_9allocatorIP5EnemyEELi1ELb0EE5__getB8ue170006Ev, symObjAddr: 0x8228, symBinAddr: 0x100009D6C, symSize: 0x18 }
  - { offsetInCU: 0x19197, offset: 0x19197, size: 0x8, addend: 0x0, symName: __ZNSt3__117__compressed_pairIPP5EnemyRNS_9allocatorIS2_EEE5firstB8ue170006Ev, symObjAddr: 0x8240, symBinAddr: 0x100009D84, symSize: 0x24 }
  - { offsetInCU: 0x191BD, offset: 0x191BD, size: 0x8, addend: 0x0, symName: __ZNSt3__116reverse_iteratorIPP5EnemyEC1B8ue170006ES3_, symObjAddr: 0x82DC, symBinAddr: 0x100009E20, symSize: 0x34 }
  - { offsetInCU: 0x191F5, offset: 0x191F5, size: 0x8, addend: 0x0, symName: __ZNKSt3__116reverse_iteratorIPP5EnemyE4baseB8ue170006Ev, symObjAddr: 0x8310, symBinAddr: 0x100009E54, symSize: 0x18 }
  - { offsetInCU: 0x1921B, offset: 0x1921B, size: 0x8, addend: 0x0, symName: __ZNKSt3__16vectorIP5EnemyNS_9allocatorIS2_EEE14__annotate_newB8ue170006Em, symObjAddr: 0x8364, symBinAddr: 0x100009EA8, symSize: 0xAC }
  - { offsetInCU: 0x19269, offset: 0x19269, size: 0x8, addend: 0x0, symName: __ZNKSt3__111__move_loopINS_17_ClassicAlgPolicyEEclB8ue170006INS_16reverse_iteratorIPP5EnemyEES8_S8_EENS_4pairIT_T1_EESA_T0_SB_, symObjAddr: 0x8700, symBinAddr: 0x10000A244, symSize: 0xA0 }
  - { offsetInCU: 0x192D9, offset: 0x192D9, size: 0x8, addend: 0x0, symName: __ZNSt3__18_IterOpsINS_17_ClassicAlgPolicyEE11__iter_moveB8ue170006IRNS_16reverse_iteratorIPP5EnemyEEEENS_9enable_ifIXsr12is_referenceIDTdeclsr3stdE7declvalIRT_EEEEE5valueEDTclsr3stdE4movedeclsr3stdE7declvalISC_EEEEE4typeEOSB_, symObjAddr: 0x8934, symBinAddr: 0x10000A478, symSize: 0x28 }
  - { offsetInCU: 0x19305, offset: 0x19305, size: 0x8, addend: 0x0, symName: __ZNKSt3__116reverse_iteratorIPP5EnemyEdeB8ue170006Ev, symObjAddr: 0x895C, symBinAddr: 0x10000A4A0, symSize: 0x28 }
  - { offsetInCU: 0x19339, offset: 0x19339, size: 0x8, addend: 0x0, symName: __ZNSt3__116reverse_iteratorIPP5EnemyEppB8ue170006Ev, symObjAddr: 0x8984, symBinAddr: 0x10000A4C8, symSize: 0x20 }
  - { offsetInCU: 0x1935F, offset: 0x1935F, size: 0x8, addend: 0x0, symName: __ZNSt3__18_IterOpsINS_17_ClassicAlgPolicyEE25__validate_iter_referenceB8ue170006IRNS_16reverse_iteratorIPP5EnemyEEEEvv, symObjAddr: 0x89A4, symBinAddr: 0x10000A4E8, symSize: 0x4 }
  - { offsetInCU: 0x1937D, offset: 0x1937D, size: 0x8, addend: 0x0, symName: __ZNSt3__118__unwrap_iter_implINS_16reverse_iteratorIPP5EnemyEELb0EE8__unwrapB8ue170006ES5_, symObjAddr: 0x89A8, symBinAddr: 0x10000A4EC, symSize: 0x24 }
  - { offsetInCU: 0x193A5, offset: 0x193A5, size: 0x8, addend: 0x0, symName: __ZNSt3__14pairINS_16reverse_iteratorIPP5EnemyEES5_EC1B8ue170006IS5_S5_LPv0EEEOT_OT0_, symObjAddr: 0x89CC, symBinAddr: 0x10000A510, symSize: 0x3C }
  - { offsetInCU: 0x19403, offset: 0x19403, size: 0x8, addend: 0x0, symName: __ZNSt3__14pairINS_16reverse_iteratorIPP5EnemyEES5_EC2B8ue170006IS5_S5_LPv0EEEOT_OT0_, symObjAddr: 0x8A08, symBinAddr: 0x10000A54C, symSize: 0x34 }
  - { offsetInCU: 0x19461, offset: 0x19461, size: 0x8, addend: 0x0, symName: __ZNSt3__118__unwrap_iter_implINS_16reverse_iteratorIPP5EnemyEELb0EE8__rewrapB8ue170006ES5_S5_, symObjAddr: 0x8A3C, symBinAddr: 0x10000A580, symSize: 0x2C }
  - { offsetInCU: 0x1948F, offset: 0x1948F, size: 0x8, addend: 0x0, symName: __ZNSt3__116reverse_iteratorIPP5EnemyEC2B8ue170006ES3_, symObjAddr: 0x8A68, symBinAddr: 0x10000A5AC, symSize: 0x28 }
  - { offsetInCU: 0x194C7, offset: 0x194C7, size: 0x8, addend: 0x0, symName: __ZNSt3__114__split_bufferIP5EnemyRNS_9allocatorIS2_EEED2Ev, symObjAddr: 0x8A90, symBinAddr: 0x10000A5D4, symSize: 0x8C }
  - { offsetInCU: 0x194F3, offset: 0x194F3, size: 0x8, addend: 0x0, symName: __ZNSt3__114__split_bufferIP5EnemyRNS_9allocatorIS2_EEE5clearB8ue170006Ev, symObjAddr: 0x8B1C, symBinAddr: 0x10000A660, symSize: 0x28 }
  - { offsetInCU: 0x19519, offset: 0x19519, size: 0x8, addend: 0x0, symName: __ZNKSt3__114__split_bufferIP5EnemyRNS_9allocatorIS2_EEE8capacityB8ue170006Ev, symObjAddr: 0x8B44, symBinAddr: 0x10000A688, symSize: 0x40 }
  - { offsetInCU: 0x1953F, offset: 0x1953F, size: 0x8, addend: 0x0, symName: __ZNSt3__114__split_bufferIP5EnemyRNS_9allocatorIS2_EEE17__destruct_at_endB8ue170006EPS2_, symObjAddr: 0x8B84, symBinAddr: 0x10000A6C8, symSize: 0x2C }
  - { offsetInCU: 0x19573, offset: 0x19573, size: 0x8, addend: 0x0, symName: __ZNSt3__114__split_bufferIP5EnemyRNS_9allocatorIS2_EEE17__destruct_at_endB8ue170006EPS2_NS_17integral_constantIbLb0EEE, symObjAddr: 0x8BB0, symBinAddr: 0x10000A6F4, symSize: 0x80 }
  - { offsetInCU: 0x195B4, offset: 0x195B4, size: 0x8, addend: 0x0, symName: __ZNKSt3__114__split_bufferIP5EnemyRNS_9allocatorIS2_EEE9__end_capB8ue170006Ev, symObjAddr: 0x8C30, symBinAddr: 0x10000A774, symSize: 0x28 }
  - { offsetInCU: 0x195DA, offset: 0x195DA, size: 0x8, addend: 0x0, symName: __ZNKSt3__117__compressed_pairIPP5EnemyRNS_9allocatorIS2_EEE5firstB8ue170006Ev, symObjAddr: 0x8C58, symBinAddr: 0x10000A79C, symSize: 0x24 }
  - { offsetInCU: 0x19600, offset: 0x19600, size: 0x8, addend: 0x0, symName: __ZNSt3__16vectorIP5EnemyNS_9allocatorIS2_EEE11__make_iterB8ue170006EPS2_, symObjAddr: 0x8C7C, symBinAddr: 0x10000A7C0, symSize: 0x30 }
  - { offsetInCU: 0x19635, offset: 0x19635, size: 0x8, addend: 0x0, symName: __ZNSt3__111__wrap_iterIPP5EnemyEC1B8ue170006ES3_, symObjAddr: 0x8CAC, symBinAddr: 0x10000A7F0, symSize: 0x34 }
  - { offsetInCU: 0x1966D, offset: 0x1966D, size: 0x8, addend: 0x0, symName: __ZNSt3__111__wrap_iterIPP5EnemyEC2B8ue170006ES3_, symObjAddr: 0x8CE0, symBinAddr: 0x10000A824, symSize: 0x20 }
  - { offsetInCU: 0x196A5, offset: 0x196A5, size: 0x8, addend: 0x0, symName: __ZNSt3__16vectorI5LevelNS_9allocatorIS1_EEEC2B8ue170006Ev, symObjAddr: 0x8D00, symBinAddr: 0x10000A844, symSize: 0x4C }
  - { offsetInCU: 0x196CF, offset: 0x196CF, size: 0x8, addend: 0x0, symName: __ZNSt3__117__compressed_pairIP5LevelNS_9allocatorIS1_EEEC1B8ue170006IDnNS_18__default_init_tagEEEOT_OT0_, symObjAddr: 0x8D4C, symBinAddr: 0x10000A890, symSize: 0x3C }
  - { offsetInCU: 0x19727, offset: 0x19727, size: 0x8, addend: 0x0, symName: __ZNSt3__117__compressed_pairIP5LevelNS_9allocatorIS1_EEEC2B8ue170006IDnNS_18__default_init_tagEEEOT_OT0_, symObjAddr: 0x8D88, symBinAddr: 0x10000A8CC, symSize: 0x40 }
  - { offsetInCU: 0x1977F, offset: 0x1977F, size: 0x8, addend: 0x0, symName: __ZNSt3__122__compressed_pair_elemIP5LevelLi0ELb0EEC2B8ue170006IDnvEEOT_, symObjAddr: 0x8DC8, symBinAddr: 0x10000A90C, symSize: 0x1C }
  - { offsetInCU: 0x197C1, offset: 0x197C1, size: 0x8, addend: 0x0, symName: __ZNSt3__122__compressed_pair_elemINS_9allocatorI5LevelEELi1ELb1EEC2B8ue170006ENS_18__default_init_tagE, symObjAddr: 0x8DE4, symBinAddr: 0x10000A928, symSize: 0x2C }
  - { offsetInCU: 0x197F6, offset: 0x197F6, size: 0x8, addend: 0x0, symName: __ZNSt3__19allocatorI5LevelEC2B8ue170006Ev, symObjAddr: 0x8E10, symBinAddr: 0x10000A954, symSize: 0x2C }
  - { offsetInCU: 0x19820, offset: 0x19820, size: 0x8, addend: 0x0, symName: __ZNSt3__116__non_trivial_ifILb1ENS_9allocatorI5LevelEEEC2B8ue170006Ev, symObjAddr: 0x8E3C, symBinAddr: 0x10000A980, symSize: 0x14 }
  - { offsetInCU: 0x1984A, offset: 0x1984A, size: 0x8, addend: 0x0, symName: __ZNSt3__16vectorI4FishNS_9allocatorIS1_EEEC2B8ue170006ESt16initializer_listIS1_E, symObjAddr: 0x8E50, symBinAddr: 0x10000A994, symSize: 0x120 }
  - { offsetInCU: 0x1989A, offset: 0x1989A, size: 0x8, addend: 0x0, symName: __ZNSt3__117__compressed_pairIP4FishNS_9allocatorIS1_EEEC1B8ue170006IDnNS_18__default_init_tagEEEOT_OT0_, symObjAddr: 0x8F70, symBinAddr: 0x10000AAB4, symSize: 0x3C }
  - { offsetInCU: 0x198F2, offset: 0x198F2, size: 0x8, addend: 0x0, symName: __ZNSt3__16vectorI4FishNS_9allocatorIS1_EEE16__destroy_vectorC1B8ue170006ERS4_, symObjAddr: 0x8FEC, symBinAddr: 0x10000AB30, symSize: 0x34 }
  - { offsetInCU: 0x1992B, offset: 0x1992B, size: 0x8, addend: 0x0, symName: __ZNKSt16initializer_listI4FishE4sizeB8ue170006Ev, symObjAddr: 0x9020, symBinAddr: 0x10000AB64, symSize: 0x18 }
  - { offsetInCU: 0x19951, offset: 0x19951, size: 0x8, addend: 0x0, symName: __ZNSt3__16vectorI4FishNS_9allocatorIS1_EEE11__vallocateB8ue170006Em, symObjAddr: 0x9038, symBinAddr: 0x10000AB7C, symSize: 0xB4 }
  - { offsetInCU: 0x19995, offset: 0x19995, size: 0x8, addend: 0x0, symName: __ZNSt3__16vectorI4FishNS_9allocatorIS1_EEE18__construct_at_endIPKS1_S7_EEvT_T0_m, symObjAddr: 0x90EC, symBinAddr: 0x10000AC30, symSize: 0x8C }
  - { offsetInCU: 0x19A0B, offset: 0x19A0B, size: 0x8, addend: 0x0, symName: __ZNKSt16initializer_listI4FishE5beginB8ue170006Ev, symObjAddr: 0x9178, symBinAddr: 0x10000ACBC, symSize: 0x18 }
  - { offsetInCU: 0x19A31, offset: 0x19A31, size: 0x8, addend: 0x0, symName: __ZNKSt16initializer_listI4FishE3endB8ue170006Ev, symObjAddr: 0x9190, symBinAddr: 0x10000ACD4, symSize: 0x28 }
  - { offsetInCU: 0x19A57, offset: 0x19A57, size: 0x8, addend: 0x0, symName: __ZNSt3__128__exception_guard_exceptionsINS_6vectorI4FishNS_9allocatorIS2_EEE16__destroy_vectorEE10__completeB8ue170006Ev, symObjAddr: 0x91B8, symBinAddr: 0x10000ACFC, symSize: 0x1C }
  - { offsetInCU: 0x19A7D, offset: 0x19A7D, size: 0x8, addend: 0x0, symName: __ZNSt3__128__exception_guard_exceptionsINS_6vectorI4FishNS_9allocatorIS2_EEE16__destroy_vectorEED1B8ue170006Ev, symObjAddr: 0x91D4, symBinAddr: 0x10000AD18, symSize: 0x2C }
  - { offsetInCU: 0x19AA7, offset: 0x19AA7, size: 0x8, addend: 0x0, symName: __ZNSt3__117__compressed_pairIP4FishNS_9allocatorIS1_EEEC2B8ue170006IDnNS_18__default_init_tagEEEOT_OT0_, symObjAddr: 0x9200, symBinAddr: 0x10000AD44, symSize: 0x40 }
  - { offsetInCU: 0x19AFF, offset: 0x19AFF, size: 0x8, addend: 0x0, symName: __ZNSt3__122__compressed_pair_elemIP4FishLi0ELb0EEC2B8ue170006IDnvEEOT_, symObjAddr: 0x9240, symBinAddr: 0x10000AD84, symSize: 0x1C }
  - { offsetInCU: 0x19B41, offset: 0x19B41, size: 0x8, addend: 0x0, symName: __ZNSt3__122__compressed_pair_elemINS_9allocatorI4FishEELi1ELb1EEC2B8ue170006ENS_18__default_init_tagE, symObjAddr: 0x925C, symBinAddr: 0x10000ADA0, symSize: 0x2C }
  - { offsetInCU: 0x19B76, offset: 0x19B76, size: 0x8, addend: 0x0, symName: __ZNSt3__19allocatorI4FishEC2B8ue170006Ev, symObjAddr: 0x9288, symBinAddr: 0x10000ADCC, symSize: 0x2C }
  - { offsetInCU: 0x19BA0, offset: 0x19BA0, size: 0x8, addend: 0x0, symName: __ZNSt3__116__non_trivial_ifILb1ENS_9allocatorI4FishEEEC2B8ue170006Ev, symObjAddr: 0x92B4, symBinAddr: 0x10000ADF8, symSize: 0x14 }
  - { offsetInCU: 0x19BCA, offset: 0x19BCA, size: 0x8, addend: 0x0, symName: __ZNSt3__128__exception_guard_exceptionsINS_6vectorI4FishNS_9allocatorIS2_EEE16__destroy_vectorEEC1B8ue170006ES6_, symObjAddr: 0x92C8, symBinAddr: 0x10000AE0C, symSize: 0x34 }
  - { offsetInCU: 0x19C02, offset: 0x19C02, size: 0x8, addend: 0x0, symName: __ZNSt3__128__exception_guard_exceptionsINS_6vectorI4FishNS_9allocatorIS2_EEE16__destroy_vectorEEC2B8ue170006ES6_, symObjAddr: 0x92FC, symBinAddr: 0x10000AE40, symSize: 0x24 }
  - { offsetInCU: 0x19C3A, offset: 0x19C3A, size: 0x8, addend: 0x0, symName: __ZNSt3__16vectorI4FishNS_9allocatorIS1_EEE16__destroy_vectorC2B8ue170006ERS4_, symObjAddr: 0x9320, symBinAddr: 0x10000AE64, symSize: 0x20 }
  - { offsetInCU: 0x19C73, offset: 0x19C73, size: 0x8, addend: 0x0, symName: __ZNKSt3__16vectorI4FishNS_9allocatorIS1_EEE8max_sizeEv, symObjAddr: 0x9340, symBinAddr: 0x10000AE84, symSize: 0x60 }
  - { offsetInCU: 0x19C9B, offset: 0x19C9B, size: 0x8, addend: 0x0, symName: __ZNKSt3__16vectorI4FishNS_9allocatorIS1_EEE20__throw_length_errorB8ue170006Ev, symObjAddr: 0x93A0, symBinAddr: 0x10000AEE4, symSize: 0x1C }
  - { offsetInCU: 0x19CC1, offset: 0x19CC1, size: 0x8, addend: 0x0, symName: __ZNSt3__16vectorI4FishNS_9allocatorIS1_EEE7__allocB8ue170006Ev, symObjAddr: 0x93FC, symBinAddr: 0x10000AF40, symSize: 0x28 }
  - { offsetInCU: 0x19CE7, offset: 0x19CE7, size: 0x8, addend: 0x0, symName: __ZNSt3__16vectorI4FishNS_9allocatorIS1_EEE9__end_capB8ue170006Ev, symObjAddr: 0x9424, symBinAddr: 0x10000AF68, symSize: 0x28 }
  - { offsetInCU: 0x19D0D, offset: 0x19D0D, size: 0x8, addend: 0x0, symName: __ZNKSt3__16vectorI4FishNS_9allocatorIS1_EEE14__annotate_newB8ue170006Em, symObjAddr: 0x944C, symBinAddr: 0x10000AF90, symSize: 0xC8 }
  - { offsetInCU: 0x19D4C, offset: 0x19D4C, size: 0x8, addend: 0x0, symName: __ZNSt3__116allocator_traitsINS_9allocatorI4FishEEE8max_sizeB8ue170006IS3_vEEmRKS3_, symObjAddr: 0x9514, symBinAddr: 0x10000B058, symSize: 0x24 }
  - { offsetInCU: 0x19D7A, offset: 0x19D7A, size: 0x8, addend: 0x0, symName: __ZNKSt3__16vectorI4FishNS_9allocatorIS1_EEE7__allocB8ue170006Ev, symObjAddr: 0x9538, symBinAddr: 0x10000B07C, symSize: 0x28 }
  - { offsetInCU: 0x19DA0, offset: 0x19DA0, size: 0x8, addend: 0x0, symName: __ZNKSt3__19allocatorI4FishE8max_sizeB8ue170006Ev, symObjAddr: 0x9560, symBinAddr: 0x10000B0A4, symSize: 0x20 }
  - { offsetInCU: 0x19DC6, offset: 0x19DC6, size: 0x8, addend: 0x0, symName: __ZNKSt3__117__compressed_pairIP4FishNS_9allocatorIS1_EEE6secondB8ue170006Ev, symObjAddr: 0x9580, symBinAddr: 0x10000B0C4, symSize: 0x24 }
  - { offsetInCU: 0x19DEC, offset: 0x19DEC, size: 0x8, addend: 0x0, symName: __ZNKSt3__122__compressed_pair_elemINS_9allocatorI4FishEELi1ELb1EE5__getB8ue170006Ev, symObjAddr: 0x95A4, symBinAddr: 0x10000B0E8, symSize: 0x14 }
  - { offsetInCU: 0x19E12, offset: 0x19E12, size: 0x8, addend: 0x0, symName: __ZNSt3__19allocatorI4FishE8allocateB8ue170006Em, symObjAddr: 0x95B8, symBinAddr: 0x10000B0FC, symSize: 0x5C }
  - { offsetInCU: 0x19E46, offset: 0x19E46, size: 0x8, addend: 0x0, symName: __ZNSt3__117__compressed_pairIP4FishNS_9allocatorIS1_EEE6secondB8ue170006Ev, symObjAddr: 0x9614, symBinAddr: 0x10000B158, symSize: 0x24 }
  - { offsetInCU: 0x19E6C, offset: 0x19E6C, size: 0x8, addend: 0x0, symName: __ZNSt3__122__compressed_pair_elemINS_9allocatorI4FishEELi1ELb1EE5__getB8ue170006Ev, symObjAddr: 0x9638, symBinAddr: 0x10000B17C, symSize: 0x14 }
  - { offsetInCU: 0x19E92, offset: 0x19E92, size: 0x8, addend: 0x0, symName: __ZNSt3__117__compressed_pairIP4FishNS_9allocatorIS1_EEE5firstB8ue170006Ev, symObjAddr: 0x964C, symBinAddr: 0x10000B190, symSize: 0x24 }
  - { offsetInCU: 0x19EB8, offset: 0x19EB8, size: 0x8, addend: 0x0, symName: __ZNSt3__122__compressed_pair_elemIP4FishLi0ELb0EE5__getB8ue170006Ev, symObjAddr: 0x9670, symBinAddr: 0x10000B1B4, symSize: 0x14 }
  - { offsetInCU: 0x19EDE, offset: 0x19EDE, size: 0x8, addend: 0x0, symName: __ZNKSt3__16vectorI4FishNS_9allocatorIS1_EEE31__annotate_contiguous_containerB8ue170006EPKvS6_S6_S6_, symObjAddr: 0x9684, symBinAddr: 0x10000B1C8, symSize: 0x20 }
  - { offsetInCU: 0x19F30, offset: 0x19F30, size: 0x8, addend: 0x0, symName: __ZNKSt3__16vectorI4FishNS_9allocatorIS1_EEE4dataB8ue170006Ev, symObjAddr: 0x96A4, symBinAddr: 0x10000B1E8, symSize: 0x28 }
  - { offsetInCU: 0x19F56, offset: 0x19F56, size: 0x8, addend: 0x0, symName: __ZNKSt3__16vectorI4FishNS_9allocatorIS1_EEE8capacityB8ue170006Ev, symObjAddr: 0x96CC, symBinAddr: 0x10000B210, symSize: 0x40 }
  - { offsetInCU: 0x19F7C, offset: 0x19F7C, size: 0x8, addend: 0x0, symName: __ZNKSt3__16vectorI4FishNS_9allocatorIS1_EEE9__end_capB8ue170006Ev, symObjAddr: 0x9720, symBinAddr: 0x10000B264, symSize: 0x28 }
  - { offsetInCU: 0x19FA2, offset: 0x19FA2, size: 0x8, addend: 0x0, symName: __ZNKSt3__117__compressed_pairIP4FishNS_9allocatorIS1_EEE5firstB8ue170006Ev, symObjAddr: 0x9748, symBinAddr: 0x10000B28C, symSize: 0x24 }
  - { offsetInCU: 0x19FC8, offset: 0x19FC8, size: 0x8, addend: 0x0, symName: __ZNKSt3__122__compressed_pair_elemIP4FishLi0ELb0EE5__getB8ue170006Ev, symObjAddr: 0x976C, symBinAddr: 0x10000B2B0, symSize: 0x14 }
  - { offsetInCU: 0x1A007, offset: 0x1A007, size: 0x8, addend: 0x0, symName: __ZNSt3__16vectorI4FishNS_9allocatorIS1_EEE21_ConstructTransactionC1B8ue170006ERS4_m, symObjAddr: 0x9780, symBinAddr: 0x10000B2C4, symSize: 0x3C }
  - { offsetInCU: 0x1A04F, offset: 0x1A04F, size: 0x8, addend: 0x0, symName: __ZNSt3__16vectorI4FishNS_9allocatorIS1_EEE21_ConstructTransactionD1B8ue170006Ev, symObjAddr: 0x983C, symBinAddr: 0x10000B380, symSize: 0x2C }
  - { offsetInCU: 0x1A079, offset: 0x1A079, size: 0x8, addend: 0x0, symName: __ZNSt3__16vectorI4FishNS_9allocatorIS1_EEE21_ConstructTransactionC2B8ue170006ERS4_m, symObjAddr: 0x9868, symBinAddr: 0x10000B3AC, symSize: 0x4C }
  - { offsetInCU: 0x1A0DF, offset: 0x1A0DF, size: 0x8, addend: 0x0, symName: __ZNSt3__14pairIPK4FishS3_EC1B8ue170006IS3_S3_LPv0EEEOT_OT0_, symObjAddr: 0x9AC4, symBinAddr: 0x10000B608, symSize: 0x3C }
  - { offsetInCU: 0x1A13D, offset: 0x1A13D, size: 0x8, addend: 0x0, symName: __ZNSt3__14pairIPK4FishS3_EC2B8ue170006IS3_S3_LPv0EEEOT_OT0_, symObjAddr: 0x9B00, symBinAddr: 0x10000B644, symSize: 0x34 }
  - { offsetInCU: 0x1A19B, offset: 0x1A19B, size: 0x8, addend: 0x0, symName: __ZNSt3__118__unwrap_iter_implIPK4FishLb1EE8__unwrapB8ue170006ES3_, symObjAddr: 0x9B34, symBinAddr: 0x10000B678, symSize: 0x24 }
  - { offsetInCU: 0x1A1BE, offset: 0x1A1BE, size: 0x8, addend: 0x0, symName: __ZNSt3__129_AllocatorDestroyRangeReverseINS_9allocatorI4FishEEPS2_EC1B8ue170006ERS3_RS4_S7_, symObjAddr: 0x9BB8, symBinAddr: 0x10000B6FC, symSize: 0x44 }
  - { offsetInCU: 0x1A215, offset: 0x1A215, size: 0x8, addend: 0x0, symName: __ZNSt3__116allocator_traitsINS_9allocatorI4FishEEE9constructB8ue170006IS2_JRKS2_EvEEvRS3_PT_DpOT0_, symObjAddr: 0x9BFC, symBinAddr: 0x10000B740, symSize: 0x34 }
  - { offsetInCU: 0x1A26C, offset: 0x1A26C, size: 0x8, addend: 0x0, symName: __ZNSt3__128__exception_guard_exceptionsINS_29_AllocatorDestroyRangeReverseINS_9allocatorI4FishEEPS3_EEE10__completeB8ue170006Ev, symObjAddr: 0x9C30, symBinAddr: 0x10000B774, symSize: 0x1C }
  - { offsetInCU: 0x1A292, offset: 0x1A292, size: 0x8, addend: 0x0, symName: __ZNSt3__128__exception_guard_exceptionsINS_29_AllocatorDestroyRangeReverseINS_9allocatorI4FishEEPS3_EEED1B8ue170006Ev, symObjAddr: 0x9C4C, symBinAddr: 0x10000B790, symSize: 0x2C }
  - { offsetInCU: 0x1A2BC, offset: 0x1A2BC, size: 0x8, addend: 0x0, symName: __ZNSt3__128__exception_guard_exceptionsINS_29_AllocatorDestroyRangeReverseINS_9allocatorI4FishEEPS3_EEEC1B8ue170006ES6_, symObjAddr: 0x9C78, symBinAddr: 0x10000B7BC, symSize: 0x34 }
  - { offsetInCU: 0x1A2F5, offset: 0x1A2F5, size: 0x8, addend: 0x0, symName: __ZNSt3__128__exception_guard_exceptionsINS_29_AllocatorDestroyRangeReverseINS_9allocatorI4FishEEPS3_EEEC2B8ue170006ES6_, symObjAddr: 0x9CAC, symBinAddr: 0x10000B7F0, symSize: 0x30 }
  - { offsetInCU: 0x1A32E, offset: 0x1A32E, size: 0x8, addend: 0x0, symName: __ZNSt3__129_AllocatorDestroyRangeReverseINS_9allocatorI4FishEEPS2_EC2B8ue170006ERS3_RS4_S7_, symObjAddr: 0x9CDC, symBinAddr: 0x10000B820, symSize: 0x38 }
  - { offsetInCU: 0x1A385, offset: 0x1A385, size: 0x8, addend: 0x0, symName: __ZNSt3__19allocatorI4FishE9constructB8ue170006IS1_JRKS1_EEEvPT_DpOT0_, symObjAddr: 0x9D14, symBinAddr: 0x10000B858, symSize: 0x30 }
  - { offsetInCU: 0x1A3DB, offset: 0x1A3DB, size: 0x8, addend: 0x0, symName: __ZNSt3__128__exception_guard_exceptionsINS_29_AllocatorDestroyRangeReverseINS_9allocatorI4FishEEPS3_EEED2B8ue170006Ev, symObjAddr: 0x9D44, symBinAddr: 0x10000B888, symSize: 0x50 }
  - { offsetInCU: 0x1A405, offset: 0x1A405, size: 0x8, addend: 0x0, symName: __ZNKSt3__129_AllocatorDestroyRangeReverseINS_9allocatorI4FishEEPS2_EclB8ue170006Ev, symObjAddr: 0x9D94, symBinAddr: 0x10000B8D8, symSize: 0x68 }
  - { offsetInCU: 0x1A42B, offset: 0x1A42B, size: 0x8, addend: 0x0, symName: __ZNSt3__116reverse_iteratorIP4FishEC1B8ue170006ES2_, symObjAddr: 0x9E6C, symBinAddr: 0x10000B9B0, symSize: 0x34 }
  - { offsetInCU: 0x1A463, offset: 0x1A463, size: 0x8, addend: 0x0, symName: __ZNSt3__116allocator_traitsINS_9allocatorI4FishEEE7destroyB8ue170006IS2_vEEvRS3_PT_, symObjAddr: 0x9EE8, symBinAddr: 0x10000BA2C, symSize: 0x2C }
  - { offsetInCU: 0x1A4A0, offset: 0x1A4A0, size: 0x8, addend: 0x0, symName: __ZNSt3__116reverse_iteratorIP4FishEppB8ue170006Ev, symObjAddr: 0x9F38, symBinAddr: 0x10000BA7C, symSize: 0x20 }
  - { offsetInCU: 0x1A4C6, offset: 0x1A4C6, size: 0x8, addend: 0x0, symName: __ZNKSt3__116reverse_iteratorIP4FishE4baseB8ue170006Ev, symObjAddr: 0x9F58, symBinAddr: 0x10000BA9C, symSize: 0x18 }
  - { offsetInCU: 0x1A4EC, offset: 0x1A4EC, size: 0x8, addend: 0x0, symName: __ZNSt3__19allocatorI4FishE7destroyB8ue170006EPS1_, symObjAddr: 0x9F70, symBinAddr: 0x10000BAB4, symSize: 0x28 }
  - { offsetInCU: 0x1A525, offset: 0x1A525, size: 0x8, addend: 0x0, symName: __ZNSt3__119__to_address_helperINS_16reverse_iteratorIP4FishEEvE6__callB8ue170006ERKS4_, symObjAddr: 0x9F98, symBinAddr: 0x10000BADC, symSize: 0x38 }
  - { offsetInCU: 0x1A548, offset: 0x1A548, size: 0x8, addend: 0x0, symName: __ZNKSt3__116reverse_iteratorIP4FishEptB8ue170006Ev, symObjAddr: 0x9FD0, symBinAddr: 0x10000BB14, symSize: 0x24 }
  - { offsetInCU: 0x1A56E, offset: 0x1A56E, size: 0x8, addend: 0x0, symName: __ZNKSt3__116reverse_iteratorIP4FishEdeB8ue170006Ev, symObjAddr: 0x9FF4, symBinAddr: 0x10000BB38, symSize: 0x28 }
  - { offsetInCU: 0x1A5A2, offset: 0x1A5A2, size: 0x8, addend: 0x0, symName: __ZNSt3__116reverse_iteratorIP4FishEC2B8ue170006ES2_, symObjAddr: 0xA01C, symBinAddr: 0x10000BB60, symSize: 0x28 }
  - { offsetInCU: 0x1A5DA, offset: 0x1A5DA, size: 0x8, addend: 0x0, symName: __ZNSt3__118__unwrap_iter_implIP4FishLb1EE8__unwrapB8ue170006ES2_, symObjAddr: 0xA044, symBinAddr: 0x10000BB88, symSize: 0x24 }
  - { offsetInCU: 0x1A5FD, offset: 0x1A5FD, size: 0x8, addend: 0x0, symName: __ZNSt3__118__unwrap_iter_implIP4FishLb1EE8__rewrapB8ue170006ES2_S2_, symObjAddr: 0xA068, symBinAddr: 0x10000BBAC, symSize: 0x58 }
  - { offsetInCU: 0x1A62E, offset: 0x1A62E, size: 0x8, addend: 0x0, symName: __ZNSt3__16vectorI4FishNS_9allocatorIS1_EEE21_ConstructTransactionD2B8ue170006Ev, symObjAddr: 0xA0C0, symBinAddr: 0x10000BC04, symSize: 0x20 }
  - { offsetInCU: 0x1A658, offset: 0x1A658, size: 0x8, addend: 0x0, symName: __ZNSt3__128__exception_guard_exceptionsINS_6vectorI4FishNS_9allocatorIS2_EEE16__destroy_vectorEED2B8ue170006Ev, symObjAddr: 0xA0E0, symBinAddr: 0x10000BC24, symSize: 0x50 }
  - { offsetInCU: 0x1A682, offset: 0x1A682, size: 0x8, addend: 0x0, symName: __ZNSt3__16vectorI4FishNS_9allocatorIS1_EEE16__destroy_vectorclB8ue170006Ev, symObjAddr: 0xA130, symBinAddr: 0x10000BC74, symSize: 0x90 }
  - { offsetInCU: 0x1A6A8, offset: 0x1A6A8, size: 0x8, addend: 0x0, symName: __ZNSt3__16vectorI4FishNS_9allocatorIS1_EEE7__clearB8ue170006Ev, symObjAddr: 0xA1C0, symBinAddr: 0x10000BD04, symSize: 0x28 }
  - { offsetInCU: 0x1A6CE, offset: 0x1A6CE, size: 0x8, addend: 0x0, symName: __ZNKSt3__16vectorI4FishNS_9allocatorIS1_EEE17__annotate_deleteB8ue170006Ev, symObjAddr: 0xA1E8, symBinAddr: 0x10000BD2C, symSize: 0xD4 }
  - { offsetInCU: 0x1A6F4, offset: 0x1A6F4, size: 0x8, addend: 0x0, symName: __ZNSt3__116allocator_traitsINS_9allocatorI4FishEEE10deallocateB8ue170006ERS3_PS2_m, symObjAddr: 0xA2BC, symBinAddr: 0x10000BE00, symSize: 0x34 }
  - { offsetInCU: 0x1A736, offset: 0x1A736, size: 0x8, addend: 0x0, symName: __ZNSt3__16vectorI4FishNS_9allocatorIS1_EEE22__base_destruct_at_endB8ue170006EPS1_, symObjAddr: 0xA2F0, symBinAddr: 0x10000BE34, symSize: 0x8C }
  - { offsetInCU: 0x1A77A, offset: 0x1A77A, size: 0x8, addend: 0x0, symName: __ZNSt3__19allocatorI4FishE10deallocateB8ue170006EPS1_m, symObjAddr: 0xA37C, symBinAddr: 0x10000BEC0, symSize: 0x44 }
  - { offsetInCU: 0x1A7BC, offset: 0x1A7BC, size: 0x8, addend: 0x0, symName: __ZNSt3__16vectorI4FishNS_9allocatorIS1_EEED2B8ue170006Ev, symObjAddr: 0xA3C0, symBinAddr: 0x10000BF04, symSize: 0x40 }
  - { offsetInCU: 0x1A7E6, offset: 0x1A7E6, size: 0x8, addend: 0x0, symName: __ZNSt3__16vectorI4FishNS_9allocatorIS1_EEEC2ERKS4_, symObjAddr: 0xA400, symBinAddr: 0x10000BF44, symSize: 0x94 }
  - { offsetInCU: 0x1A821, offset: 0x1A821, size: 0x8, addend: 0x0, symName: __ZNSt3__116allocator_traitsINS_9allocatorI4FishEEE37select_on_container_copy_constructionB8ue170006IS3_vvEES3_RKS3_, symObjAddr: 0xA494, symBinAddr: 0x10000BFD8, symSize: 0x10 }
  - { offsetInCU: 0x1A855, offset: 0x1A855, size: 0x8, addend: 0x0, symName: __ZNSt3__117__compressed_pairIP4FishNS_9allocatorIS1_EEEC1B8ue170006IDnS4_EEOT_OT0_, symObjAddr: 0xA4A4, symBinAddr: 0x10000BFE8, symSize: 0x3C }
  - { offsetInCU: 0x1A8AD, offset: 0x1A8AD, size: 0x8, addend: 0x0, symName: __ZNSt3__16vectorI4FishNS_9allocatorIS1_EEE16__init_with_sizeB8ue170006IPS1_S6_EEvT_T0_m, symObjAddr: 0xA4E0, symBinAddr: 0x10000C024, symSize: 0xB8 }
  - { offsetInCU: 0x1A921, offset: 0x1A921, size: 0x8, addend: 0x0, symName: __ZNSt3__117__compressed_pairIP4FishNS_9allocatorIS1_EEEC2B8ue170006IDnS4_EEOT_OT0_, symObjAddr: 0xA598, symBinAddr: 0x10000C0DC, symSize: 0x44 }
  - { offsetInCU: 0x1A979, offset: 0x1A979, size: 0x8, addend: 0x0, symName: __ZNSt3__122__compressed_pair_elemINS_9allocatorI4FishEELi1ELb1EEC2B8ue170006IS3_vEEOT_, symObjAddr: 0xA5DC, symBinAddr: 0x10000C120, symSize: 0x18 }
  - { offsetInCU: 0x1A9BB, offset: 0x1A9BB, size: 0x8, addend: 0x0, symName: __ZNSt3__16vectorI4FishNS_9allocatorIS1_EEE18__construct_at_endIPS1_S6_EEvT_T0_m, symObjAddr: 0xA5F4, symBinAddr: 0x10000C138, symSize: 0x8C }
  - { offsetInCU: 0x1AA4F, offset: 0x1AA4F, size: 0x8, addend: 0x0, symName: __ZNSt3__14pairIP4FishS2_EC1B8ue170006IS2_S2_LPv0EEEOT_OT0_, symObjAddr: 0xA88C, symBinAddr: 0x10000C3D0, symSize: 0x3C }
  - { offsetInCU: 0x1AAAD, offset: 0x1AAAD, size: 0x8, addend: 0x0, symName: __ZNSt3__14pairIP4FishS2_EC2B8ue170006IS2_S2_LPv0EEEOT_OT0_, symObjAddr: 0xA8C8, symBinAddr: 0x10000C40C, symSize: 0x34 }
  - { offsetInCU: 0x1AB0B, offset: 0x1AB0B, size: 0x8, addend: 0x0, symName: __ZNSt3__116allocator_traitsINS_9allocatorI4FishEEE9constructB8ue170006IS2_JRS2_EvEEvRS3_PT_DpOT0_, symObjAddr: 0xA8FC, symBinAddr: 0x10000C440, symSize: 0x34 }
  - { offsetInCU: 0x1AB62, offset: 0x1AB62, size: 0x8, addend: 0x0, symName: __ZNSt3__19allocatorI4FishE9constructB8ue170006IS1_JRS1_EEEvPT_DpOT0_, symObjAddr: 0xA930, symBinAddr: 0x10000C474, symSize: 0x30 }
  - { offsetInCU: 0x1ABB8, offset: 0x1ABB8, size: 0x8, addend: 0x0, symName: __ZNSt3__16vectorI5LevelNS_9allocatorIS1_EEE9__end_capB8ue170006Ev, symObjAddr: 0xA960, symBinAddr: 0x10000C4A4, symSize: 0x28 }
  - { offsetInCU: 0x1ABE3, offset: 0x1ABE3, size: 0x8, addend: 0x0, symName: __ZNSt3__16vectorI5LevelNS_9allocatorIS1_EEE22__construct_one_at_endB8ue170006IJS1_EEEvDpOT_, symObjAddr: 0xA988, symBinAddr: 0x10000C4CC, symSize: 0x90 }
  - { offsetInCU: 0x1AC32, offset: 0x1AC32, size: 0x8, addend: 0x0, symName: __ZNSt3__16vectorI5LevelNS_9allocatorIS1_EEE21__push_back_slow_pathIS1_EEvOT_, symObjAddr: 0xAA18, symBinAddr: 0x10000C55C, symSize: 0xD8 }
  - { offsetInCU: 0x1AC90, offset: 0x1AC90, size: 0x8, addend: 0x0, symName: __ZNSt3__117__compressed_pairIP5LevelNS_9allocatorIS1_EEE5firstB8ue170006Ev, symObjAddr: 0xAAF0, symBinAddr: 0x10000C634, symSize: 0x24 }
  - { offsetInCU: 0x1ACB6, offset: 0x1ACB6, size: 0x8, addend: 0x0, symName: __ZNSt3__122__compressed_pair_elemIP5LevelLi0ELb0EE5__getB8ue170006Ev, symObjAddr: 0xAB14, symBinAddr: 0x10000C658, symSize: 0x14 }
  - { offsetInCU: 0x1ACF5, offset: 0x1ACF5, size: 0x8, addend: 0x0, symName: __ZNSt3__16vectorI5LevelNS_9allocatorIS1_EEE21_ConstructTransactionC1B8ue170006ERS4_m, symObjAddr: 0xAB28, symBinAddr: 0x10000C66C, symSize: 0x3C }
  - { offsetInCU: 0x1AD3D, offset: 0x1AD3D, size: 0x8, addend: 0x0, symName: __ZNSt3__116allocator_traitsINS_9allocatorI5LevelEEE9constructB8ue170006IS2_JS2_EvEEvRS3_PT_DpOT0_, symObjAddr: 0xAB64, symBinAddr: 0x10000C6A8, symSize: 0x34 }
  - { offsetInCU: 0x1AD94, offset: 0x1AD94, size: 0x8, addend: 0x0, symName: __ZNSt3__16vectorI5LevelNS_9allocatorIS1_EEE21_ConstructTransactionD1B8ue170006Ev, symObjAddr: 0xAB98, symBinAddr: 0x10000C6DC, symSize: 0x2C }
  - { offsetInCU: 0x1ADBE, offset: 0x1ADBE, size: 0x8, addend: 0x0, symName: __ZNSt3__16vectorI5LevelNS_9allocatorIS1_EEE21_ConstructTransactionC2B8ue170006ERS4_m, symObjAddr: 0xABC4, symBinAddr: 0x10000C708, symSize: 0x44 }
  - { offsetInCU: 0x1AE06, offset: 0x1AE06, size: 0x8, addend: 0x0, symName: __ZNSt3__19allocatorI5LevelE9constructB8ue170006IS1_JS1_EEEvPT_DpOT0_, symObjAddr: 0xAC08, symBinAddr: 0x10000C74C, symSize: 0x30 }
  - { offsetInCU: 0x1AE5C, offset: 0x1AE5C, size: 0x8, addend: 0x0, symName: __ZN5LevelC1ERKS_, symObjAddr: 0xAC38, symBinAddr: 0x10000C77C, symSize: 0x34 }
  - { offsetInCU: 0x1AE91, offset: 0x1AE91, size: 0x8, addend: 0x0, symName: __ZN5LevelC2ERKS_, symObjAddr: 0xAC6C, symBinAddr: 0x10000C7B0, symSize: 0x48 }
  - { offsetInCU: 0x1AEC6, offset: 0x1AEC6, size: 0x8, addend: 0x0, symName: __ZNSt3__16vectorI5LevelNS_9allocatorIS1_EEE21_ConstructTransactionD2B8ue170006Ev, symObjAddr: 0xACB4, symBinAddr: 0x10000C7F8, symSize: 0x20 }
  - { offsetInCU: 0x1AEF0, offset: 0x1AEF0, size: 0x8, addend: 0x0, symName: __ZNKSt3__16vectorI5LevelNS_9allocatorIS1_EEE11__recommendB8ue170006Em, symObjAddr: 0xACD4, symBinAddr: 0x10000C818, symSize: 0xB4 }
  - { offsetInCU: 0x1AF45, offset: 0x1AF45, size: 0x8, addend: 0x0, symName: __ZNSt3__114__split_bufferI5LevelRNS_9allocatorIS1_EEEC1EmmS4_, symObjAddr: 0xAD88, symBinAddr: 0x10000C8CC, symSize: 0x44 }
  - { offsetInCU: 0x1AF9B, offset: 0x1AF9B, size: 0x8, addend: 0x0, symName: __ZNSt3__114__split_bufferI5LevelRNS_9allocatorIS1_EEED1Ev, symObjAddr: 0xAEDC, symBinAddr: 0x10000CA20, symSize: 0x2C }
  - { offsetInCU: 0x1AFC7, offset: 0x1AFC7, size: 0x8, addend: 0x0, symName: __ZNKSt3__16vectorI5LevelNS_9allocatorIS1_EEE8max_sizeEv, symObjAddr: 0xAF08, symBinAddr: 0x10000CA4C, symSize: 0x60 }
  - { offsetInCU: 0x1AFEF, offset: 0x1AFEF, size: 0x8, addend: 0x0, symName: __ZNKSt3__16vectorI5LevelNS_9allocatorIS1_EEE20__throw_length_errorB8ue170006Ev, symObjAddr: 0xAF68, symBinAddr: 0x10000CAAC, symSize: 0x1C }
  - { offsetInCU: 0x1B01F, offset: 0x1B01F, size: 0x8, addend: 0x0, symName: __ZNSt3__116allocator_traitsINS_9allocatorI5LevelEEE8max_sizeB8ue170006IS3_vEEmRKS3_, symObjAddr: 0xAF84, symBinAddr: 0x10000CAC8, symSize: 0x24 }
  - { offsetInCU: 0x1B04D, offset: 0x1B04D, size: 0x8, addend: 0x0, symName: __ZNKSt3__16vectorI5LevelNS_9allocatorIS1_EEE7__allocB8ue170006Ev, symObjAddr: 0xAFA8, symBinAddr: 0x10000CAEC, symSize: 0x28 }
  - { offsetInCU: 0x1B073, offset: 0x1B073, size: 0x8, addend: 0x0, symName: __ZNKSt3__19allocatorI5LevelE8max_sizeB8ue170006Ev, symObjAddr: 0xAFD0, symBinAddr: 0x10000CB14, symSize: 0x14 }
  - { offsetInCU: 0x1B099, offset: 0x1B099, size: 0x8, addend: 0x0, symName: __ZNKSt3__117__compressed_pairIP5LevelNS_9allocatorIS1_EEE6secondB8ue170006Ev, symObjAddr: 0xAFE4, symBinAddr: 0x10000CB28, symSize: 0x24 }
  - { offsetInCU: 0x1B0BF, offset: 0x1B0BF, size: 0x8, addend: 0x0, symName: __ZNKSt3__122__compressed_pair_elemINS_9allocatorI5LevelEELi1ELb1EE5__getB8ue170006Ev, symObjAddr: 0xB008, symBinAddr: 0x10000CB4C, symSize: 0x14 }
  - { offsetInCU: 0x1B0E5, offset: 0x1B0E5, size: 0x8, addend: 0x0, symName: __ZNSt3__114__split_bufferI5LevelRNS_9allocatorIS1_EEEC2EmmS4_, symObjAddr: 0xB01C, symBinAddr: 0x10000CB60, symSize: 0xD4 }
  - { offsetInCU: 0x1B158, offset: 0x1B158, size: 0x8, addend: 0x0, symName: __ZNSt3__117__compressed_pairIP5LevelRNS_9allocatorIS1_EEEC1B8ue170006IDnS5_EEOT_OT0_, symObjAddr: 0xB0F0, symBinAddr: 0x10000CC34, symSize: 0x3C }
  - { offsetInCU: 0x1B1B0, offset: 0x1B1B0, size: 0x8, addend: 0x0, symName: __ZNSt3__114__split_bufferI5LevelRNS_9allocatorIS1_EEE7__allocB8ue170006Ev, symObjAddr: 0xB16C, symBinAddr: 0x10000CCB0, symSize: 0x28 }
  - { offsetInCU: 0x1B1D6, offset: 0x1B1D6, size: 0x8, addend: 0x0, symName: __ZNSt3__114__split_bufferI5LevelRNS_9allocatorIS1_EEE9__end_capB8ue170006Ev, symObjAddr: 0xB194, symBinAddr: 0x10000CCD8, symSize: 0x28 }
  - { offsetInCU: 0x1B1FC, offset: 0x1B1FC, size: 0x8, addend: 0x0, symName: __ZNSt3__117__compressed_pairIP5LevelRNS_9allocatorIS1_EEEC2B8ue170006IDnS5_EEOT_OT0_, symObjAddr: 0xB1BC, symBinAddr: 0x10000CD00, symSize: 0x48 }
  - { offsetInCU: 0x1B254, offset: 0x1B254, size: 0x8, addend: 0x0, symName: __ZNSt3__122__compressed_pair_elemIRNS_9allocatorI5LevelEELi1ELb0EEC2B8ue170006IS4_vEEOT_, symObjAddr: 0xB204, symBinAddr: 0x10000CD48, symSize: 0x20 }
  - { offsetInCU: 0x1B296, offset: 0x1B296, size: 0x8, addend: 0x0, symName: __ZNSt3__19allocatorI5LevelE8allocateB8ue170006Em, symObjAddr: 0xB224, symBinAddr: 0x10000CD68, symSize: 0x58 }
  - { offsetInCU: 0x1B2CA, offset: 0x1B2CA, size: 0x8, addend: 0x0, symName: __ZNSt3__117__compressed_pairIP5LevelRNS_9allocatorIS1_EEE6secondB8ue170006Ev, symObjAddr: 0xB27C, symBinAddr: 0x10000CDC0, symSize: 0x28 }
  - { offsetInCU: 0x1B2F0, offset: 0x1B2F0, size: 0x8, addend: 0x0, symName: __ZNSt3__122__compressed_pair_elemIRNS_9allocatorI5LevelEELi1ELb0EE5__getB8ue170006Ev, symObjAddr: 0xB2A4, symBinAddr: 0x10000CDE8, symSize: 0x18 }
  - { offsetInCU: 0x1B316, offset: 0x1B316, size: 0x8, addend: 0x0, symName: __ZNSt3__117__compressed_pairIP5LevelRNS_9allocatorIS1_EEE5firstB8ue170006Ev, symObjAddr: 0xB2BC, symBinAddr: 0x10000CE00, symSize: 0x24 }
  - { offsetInCU: 0x1B33C, offset: 0x1B33C, size: 0x8, addend: 0x0, symName: __ZNSt3__116reverse_iteratorIP5LevelEC1B8ue170006ES2_, symObjAddr: 0xB40C, symBinAddr: 0x10000CF50, symSize: 0x34 }
  - { offsetInCU: 0x1B374, offset: 0x1B374, size: 0x8, addend: 0x0, symName: __ZNKSt3__116reverse_iteratorIP5LevelE4baseB8ue170006Ev, symObjAddr: 0xB440, symBinAddr: 0x10000CF84, symSize: 0x18 }
  - { offsetInCU: 0x1B39A, offset: 0x1B39A, size: 0x8, addend: 0x0, symName: __ZNKSt3__16vectorI5LevelNS_9allocatorIS1_EEE14__annotate_newB8ue170006Em, symObjAddr: 0xB494, symBinAddr: 0x10000CFD8, symSize: 0xAC }
  - { offsetInCU: 0x1B3CF, offset: 0x1B3CF, size: 0x8, addend: 0x0, symName: __ZNSt3__129_AllocatorDestroyRangeReverseINS_9allocatorI5LevelEENS_16reverse_iteratorIPS2_EEEC1B8ue170006ERS3_RS6_S9_, symObjAddr: 0xB58C, symBinAddr: 0x10000D0D0, symSize: 0x44 }
  - { offsetInCU: 0x1B426, offset: 0x1B426, size: 0x8, addend: 0x0, symName: __ZNSt3__116allocator_traitsINS_9allocatorI5LevelEEE9constructB8ue170006IS2_JRKS2_EvEEvRS3_PT_DpOT0_, symObjAddr: 0xB618, symBinAddr: 0x10000D15C, symSize: 0x34 }
  - { offsetInCU: 0x1B47D, offset: 0x1B47D, size: 0x8, addend: 0x0, symName: __ZNKSt3__116reverse_iteratorIP5LevelEdeB8ue170006Ev, symObjAddr: 0xB670, symBinAddr: 0x10000D1B4, symSize: 0x28 }
  - { offsetInCU: 0x1B4B1, offset: 0x1B4B1, size: 0x8, addend: 0x0, symName: __ZNSt3__116reverse_iteratorIP5LevelEppB8ue170006Ev, symObjAddr: 0xB698, symBinAddr: 0x10000D1DC, symSize: 0x20 }
  - { offsetInCU: 0x1B4D7, offset: 0x1B4D7, size: 0x8, addend: 0x0, symName: __ZNSt3__128__exception_guard_exceptionsINS_29_AllocatorDestroyRangeReverseINS_9allocatorI5LevelEENS_16reverse_iteratorIPS3_EEEEE10__completeB8ue170006Ev, symObjAddr: 0xB6B8, symBinAddr: 0x10000D1FC, symSize: 0x1C }
  - { offsetInCU: 0x1B4FD, offset: 0x1B4FD, size: 0x8, addend: 0x0, symName: __ZNSt3__128__exception_guard_exceptionsINS_29_AllocatorDestroyRangeReverseINS_9allocatorI5LevelEENS_16reverse_iteratorIPS3_EEEEED1B8ue170006Ev, symObjAddr: 0xB6D4, symBinAddr: 0x10000D218, symSize: 0x2C }
  - { offsetInCU: 0x1B527, offset: 0x1B527, size: 0x8, addend: 0x0, symName: __ZNSt3__128__exception_guard_exceptionsINS_29_AllocatorDestroyRangeReverseINS_9allocatorI5LevelEENS_16reverse_iteratorIPS3_EEEEEC1B8ue170006ES8_, symObjAddr: 0xB700, symBinAddr: 0x10000D244, symSize: 0x34 }
  - { offsetInCU: 0x1B560, offset: 0x1B560, size: 0x8, addend: 0x0, symName: __ZNSt3__128__exception_guard_exceptionsINS_29_AllocatorDestroyRangeReverseINS_9allocatorI5LevelEENS_16reverse_iteratorIPS3_EEEEEC2B8ue170006ES8_, symObjAddr: 0xB734, symBinAddr: 0x10000D278, symSize: 0x30 }
  - { offsetInCU: 0x1B599, offset: 0x1B599, size: 0x8, addend: 0x0, symName: __ZNSt3__129_AllocatorDestroyRangeReverseINS_9allocatorI5LevelEENS_16reverse_iteratorIPS2_EEEC2B8ue170006ERS3_RS6_S9_, symObjAddr: 0xB764, symBinAddr: 0x10000D2A8, symSize: 0x38 }
  - { offsetInCU: 0x1B5F0, offset: 0x1B5F0, size: 0x8, addend: 0x0, symName: __ZNSt3__19allocatorI5LevelE9constructB8ue170006IS1_JRKS1_EEEvPT_DpOT0_, symObjAddr: 0xB79C, symBinAddr: 0x10000D2E0, symSize: 0x30 }
  - { offsetInCU: 0x1B64B, offset: 0x1B64B, size: 0x8, addend: 0x0, symName: __ZNSt3__119__to_address_helperINS_16reverse_iteratorIP5LevelEEvE6__callB8ue170006ERKS4_, symObjAddr: 0xB7CC, symBinAddr: 0x10000D310, symSize: 0x38 }
  - { offsetInCU: 0x1B66E, offset: 0x1B66E, size: 0x8, addend: 0x0, symName: __ZNKSt3__116reverse_iteratorIP5LevelEptB8ue170006Ev, symObjAddr: 0xB804, symBinAddr: 0x10000D348, symSize: 0x24 }
  - { offsetInCU: 0x1B694, offset: 0x1B694, size: 0x8, addend: 0x0, symName: __ZNSt3__128__exception_guard_exceptionsINS_29_AllocatorDestroyRangeReverseINS_9allocatorI5LevelEENS_16reverse_iteratorIPS3_EEEEED2B8ue170006Ev, symObjAddr: 0xB828, symBinAddr: 0x10000D36C, symSize: 0x50 }
  - { offsetInCU: 0x1B6BE, offset: 0x1B6BE, size: 0x8, addend: 0x0, symName: __ZNKSt3__129_AllocatorDestroyRangeReverseINS_9allocatorI5LevelEENS_16reverse_iteratorIPS2_EEEclB8ue170006Ev, symObjAddr: 0xB878, symBinAddr: 0x10000D3BC, symSize: 0xB4 }
  - { offsetInCU: 0x1B6E5, offset: 0x1B6E5, size: 0x8, addend: 0x0, symName: __ZNSt3__116reverse_iteratorINS0_IP5LevelEEEC1B8ue170006ES3_, symObjAddr: 0xB99C, symBinAddr: 0x10000D4E0, symSize: 0x3C }
  - { offsetInCU: 0x1B71D, offset: 0x1B71D, size: 0x8, addend: 0x0, symName: __ZNSt3__116reverse_iteratorINS0_IP5LevelEEEppB8ue170006Ev, symObjAddr: 0xBA5C, symBinAddr: 0x10000D5A0, symSize: 0x30 }
  - { offsetInCU: 0x1B743, offset: 0x1B743, size: 0x8, addend: 0x0, symName: __ZNKSt3__116reverse_iteratorINS0_IP5LevelEEE4baseB8ue170006Ev, symObjAddr: 0xBA8C, symBinAddr: 0x10000D5D0, symSize: 0x24 }
  - { offsetInCU: 0x1B76E, offset: 0x1B76E, size: 0x8, addend: 0x0, symName: __ZNSt3__119__to_address_helperINS_16reverse_iteratorINS1_IP5LevelEEEEvE6__callB8ue170006ERKS5_, symObjAddr: 0xBAB0, symBinAddr: 0x10000D5F4, symSize: 0x38 }
  - { offsetInCU: 0x1B791, offset: 0x1B791, size: 0x8, addend: 0x0, symName: __ZNKSt3__116reverse_iteratorINS0_IP5LevelEEEptB8ue170006Ev, symObjAddr: 0xBAE8, symBinAddr: 0x10000D62C, symSize: 0x24 }
  - { offsetInCU: 0x1B7B7, offset: 0x1B7B7, size: 0x8, addend: 0x0, symName: __ZNKSt3__116reverse_iteratorINS0_IP5LevelEEEdeB8ue170006Ev, symObjAddr: 0xBB0C, symBinAddr: 0x10000D650, symSize: 0x34 }
  - { offsetInCU: 0x1B7EB, offset: 0x1B7EB, size: 0x8, addend: 0x0, symName: __ZNSt3__116reverse_iteratorIP5LevelEmmB8ue170006Ev, symObjAddr: 0xBB40, symBinAddr: 0x10000D684, symSize: 0x20 }
  - { offsetInCU: 0x1B811, offset: 0x1B811, size: 0x8, addend: 0x0, symName: __ZNSt3__116reverse_iteratorINS0_IP5LevelEEEC2B8ue170006ES3_, symObjAddr: 0xBB60, symBinAddr: 0x10000D6A4, symSize: 0x2C }
  - { offsetInCU: 0x1B849, offset: 0x1B849, size: 0x8, addend: 0x0, symName: __ZNSt3__116reverse_iteratorIP5LevelEC2B8ue170006ES2_, symObjAddr: 0xBB8C, symBinAddr: 0x10000D6D0, symSize: 0x28 }
  - { offsetInCU: 0x1B881, offset: 0x1B881, size: 0x8, addend: 0x0, symName: __ZNSt3__114__split_bufferI5LevelRNS_9allocatorIS1_EEED2Ev, symObjAddr: 0xBBB4, symBinAddr: 0x10000D6F8, symSize: 0x8C }
  - { offsetInCU: 0x1B8AD, offset: 0x1B8AD, size: 0x8, addend: 0x0, symName: __ZNSt3__114__split_bufferI5LevelRNS_9allocatorIS1_EEE5clearB8ue170006Ev, symObjAddr: 0xBC40, symBinAddr: 0x10000D784, symSize: 0x28 }
  - { offsetInCU: 0x1B8D3, offset: 0x1B8D3, size: 0x8, addend: 0x0, symName: __ZNKSt3__114__split_bufferI5LevelRNS_9allocatorIS1_EEE8capacityB8ue170006Ev, symObjAddr: 0xBC68, symBinAddr: 0x10000D7AC, symSize: 0x40 }
  - { offsetInCU: 0x1B8F9, offset: 0x1B8F9, size: 0x8, addend: 0x0, symName: __ZNSt3__114__split_bufferI5LevelRNS_9allocatorIS1_EEE17__destruct_at_endB8ue170006EPS1_, symObjAddr: 0xBCA8, symBinAddr: 0x10000D7EC, symSize: 0x2C }
  - { offsetInCU: 0x1B92D, offset: 0x1B92D, size: 0x8, addend: 0x0, symName: __ZNSt3__114__split_bufferI5LevelRNS_9allocatorIS1_EEE17__destruct_at_endB8ue170006EPS1_NS_17integral_constantIbLb0EEE, symObjAddr: 0xBCD4, symBinAddr: 0x10000D818, symSize: 0x80 }
  - { offsetInCU: 0x1B96E, offset: 0x1B96E, size: 0x8, addend: 0x0, symName: __ZNKSt3__114__split_bufferI5LevelRNS_9allocatorIS1_EEE9__end_capB8ue170006Ev, symObjAddr: 0xBD54, symBinAddr: 0x10000D898, symSize: 0x28 }
  - { offsetInCU: 0x1B994, offset: 0x1B994, size: 0x8, addend: 0x0, symName: __ZNKSt3__117__compressed_pairIP5LevelRNS_9allocatorIS1_EEE5firstB8ue170006Ev, symObjAddr: 0xBD7C, symBinAddr: 0x10000D8C0, symSize: 0x24 }
  - { offsetInCU: 0x5913, offset: 0x2154A, size: 0x8, addend: 0x0, symName: __ZN5LevelC2EiiNSt3__16vectorI4FishNS0_9allocatorIS2_EEEE, symObjAddr: 0x0, symBinAddr: 0x10000D8E4, symSize: 0x58 }
  - { offsetInCU: 0x596A, offset: 0x215A1, size: 0x8, addend: 0x0, symName: __ZN5LevelC1EiiNSt3__16vectorI4FishNS0_9allocatorIS2_EEEE, symObjAddr: 0x8C, symBinAddr: 0x10000D93C, symSize: 0x44 }
  - { offsetInCU: 0x59C1, offset: 0x215F8, size: 0x8, addend: 0x0, symName: __ZN5LevelD2Ev, symObjAddr: 0xD0, symBinAddr: 0x10000D980, symSize: 0x30 }
  - { offsetInCU: 0x59ED, offset: 0x21624, size: 0x8, addend: 0x0, symName: __ZN5LevelD1Ev, symObjAddr: 0x12C, symBinAddr: 0x10000D9B0, symSize: 0x2C }
  - { offsetInCU: 0x26, offset: 0x216A3, size: 0x8, addend: 0x0, symName: __ZN8DecisionC2ENSt3__18functionIFbvEEEP12DecisionNodeS5_, symObjAddr: 0x0, symBinAddr: 0x10000D9DC, symSize: 0x74 }
  - { offsetInCU: 0x1352, offset: 0x229CF, size: 0x8, addend: 0x0, symName: __ZNSt3__125__throw_bad_function_callB8ue170006Ev, symObjAddr: 0x878, symBinAddr: 0x10000E254, symSize: 0x38 }
  - { offsetInCU: 0x35FF, offset: 0x24C7C, size: 0x8, addend: 0x0, symName: __ZN8DecisionC2ENSt3__18functionIFbvEEEP12DecisionNodeS5_, symObjAddr: 0x0, symBinAddr: 0x10000D9DC, symSize: 0x74 }
  - { offsetInCU: 0x3656, offset: 0x24CD3, size: 0x8, addend: 0x0, symName: __ZN12DecisionNodeC2Ev, symObjAddr: 0x74, symBinAddr: 0x10000DA50, symSize: 0x24 }
  - { offsetInCU: 0x3682, offset: 0x24CFF, size: 0x8, addend: 0x0, symName: __ZNSt3__18functionIFbvEEC1ERKS2_, symObjAddr: 0x98, symBinAddr: 0x10000DA74, symSize: 0x34 }
  - { offsetInCU: 0x36BD, offset: 0x24D3A, size: 0x8, addend: 0x0, symName: __ZN8DecisionC1ENSt3__18functionIFbvEEEP12DecisionNodeS5_, symObjAddr: 0xCC, symBinAddr: 0x10000DAA8, symSize: 0x44 }
  - { offsetInCU: 0x3714, offset: 0x24D91, size: 0x8, addend: 0x0, symName: __ZN8DecisionD2Ev, symObjAddr: 0x110, symBinAddr: 0x10000DAEC, symSize: 0x40 }
  - { offsetInCU: 0x3740, offset: 0x24DBD, size: 0x8, addend: 0x0, symName: __ZNSt3__18functionIFbvEED1Ev, symObjAddr: 0x150, symBinAddr: 0x10000DB2C, symSize: 0x2C }
  - { offsetInCU: 0x376C, offset: 0x24DE9, size: 0x8, addend: 0x0, symName: __ZN8DecisionD1Ev, symObjAddr: 0x17C, symBinAddr: 0x10000DB58, symSize: 0x2C }
  - { offsetInCU: 0x3819, offset: 0x24E96, size: 0x8, addend: 0x0, symName: __ZN6ActionC2ENSt3__18functionIFvvEEE, symObjAddr: 0x1A8, symBinAddr: 0x10000DB84, symSize: 0x5C }
  - { offsetInCU: 0x3854, offset: 0x24ED1, size: 0x8, addend: 0x0, symName: __ZNSt3__18functionIFvvEEC1ERKS2_, symObjAddr: 0x204, symBinAddr: 0x10000DBE0, symSize: 0x34 }
  - { offsetInCU: 0x388F, offset: 0x24F0C, size: 0x8, addend: 0x0, symName: __ZN6ActionC1ENSt3__18functionIFvvEEE, symObjAddr: 0x238, symBinAddr: 0x10000DC14, symSize: 0x34 }
  - { offsetInCU: 0x38CA, offset: 0x24F47, size: 0x8, addend: 0x0, symName: __ZN6ActionD2Ev, symObjAddr: 0x26C, symBinAddr: 0x10000DC48, symSize: 0x40 }
  - { offsetInCU: 0x38F6, offset: 0x24F73, size: 0x8, addend: 0x0, symName: __ZNSt3__18functionIFvvEED1Ev, symObjAddr: 0x2AC, symBinAddr: 0x10000DC88, symSize: 0x2C }
  - { offsetInCU: 0x3922, offset: 0x24F9F, size: 0x8, addend: 0x0, symName: __ZN6ActionD1Ev, symObjAddr: 0x2D8, symBinAddr: 0x10000DCB4, symSize: 0x2C }
  - { offsetInCU: 0x394E, offset: 0x24FCB, size: 0x8, addend: 0x0, symName: __ZN8Decision8evaluateEv, symObjAddr: 0x304, symBinAddr: 0x10000DCE0, symSize: 0x64 }
  - { offsetInCU: 0x3976, offset: 0x24FF3, size: 0x8, addend: 0x0, symName: __ZNKSt3__18functionIFbvEEclEv, symObjAddr: 0x368, symBinAddr: 0x10000DD44, symSize: 0x28 }
  - { offsetInCU: 0x399E, offset: 0x2501B, size: 0x8, addend: 0x0, symName: __ZN6Action8evaluateEv, symObjAddr: 0x390, symBinAddr: 0x10000DD6C, symSize: 0x28 }
  - { offsetInCU: 0x39C6, offset: 0x25043, size: 0x8, addend: 0x0, symName: __ZNKSt3__18functionIFvvEEclEv, symObjAddr: 0x3B8, symBinAddr: 0x10000DD94, symSize: 0x24 }
  - { offsetInCU: 0x39EE, offset: 0x2506B, size: 0x8, addend: 0x0, symName: __ZNSt3__18functionIFbvEEC2ERKS2_, symObjAddr: 0x3DC, symBinAddr: 0x10000DDB8, symSize: 0x34 }
  - { offsetInCU: 0x3A29, offset: 0x250A6, size: 0x8, addend: 0x0, symName: __ZNSt3__110__function12__value_funcIFbvEEC1B8ue170006ERKS3_, symObjAddr: 0x410, symBinAddr: 0x10000DDEC, symSize: 0x34 }
  - { offsetInCU: 0x3A62, offset: 0x250DF, size: 0x8, addend: 0x0, symName: __ZNSt3__110__function12__value_funcIFbvEEC2B8ue170006ERKS3_, symObjAddr: 0x444, symBinAddr: 0x10000DE20, symSize: 0xC0 }
  - { offsetInCU: 0x3A9B, offset: 0x25118, size: 0x8, addend: 0x0, symName: __ZNSt3__110__function12__value_funcIFbvEE9__as_baseB8ue170006EPv, symObjAddr: 0x504, symBinAddr: 0x10000DEE0, symSize: 0x14 }
  - { offsetInCU: 0x3ABF, offset: 0x2513C, size: 0x8, addend: 0x0, symName: __ZNSt3__18functionIFbvEED2Ev, symObjAddr: 0x518, symBinAddr: 0x10000DEF4, symSize: 0x2C }
  - { offsetInCU: 0x3AEB, offset: 0x25168, size: 0x8, addend: 0x0, symName: __ZNSt3__110__function12__value_funcIFbvEED1B8ue170006Ev, symObjAddr: 0x544, symBinAddr: 0x10000DF20, symSize: 0x2C }
  - { offsetInCU: 0x3B15, offset: 0x25192, size: 0x8, addend: 0x0, symName: __ZNSt3__110__function12__value_funcIFbvEED2B8ue170006Ev, symObjAddr: 0x570, symBinAddr: 0x10000DF4C, symSize: 0x90 }
  - { offsetInCU: 0x3B3F, offset: 0x251BC, size: 0x8, addend: 0x0, symName: __ZNSt3__18functionIFvvEEC2ERKS2_, symObjAddr: 0x600, symBinAddr: 0x10000DFDC, symSize: 0x34 }
  - { offsetInCU: 0x3B7A, offset: 0x251F7, size: 0x8, addend: 0x0, symName: __ZNSt3__110__function12__value_funcIFvvEEC1B8ue170006ERKS3_, symObjAddr: 0x634, symBinAddr: 0x10000E010, symSize: 0x34 }
  - { offsetInCU: 0x3BB3, offset: 0x25230, size: 0x8, addend: 0x0, symName: __ZNSt3__110__function12__value_funcIFvvEEC2B8ue170006ERKS3_, symObjAddr: 0x668, symBinAddr: 0x10000E044, symSize: 0xC0 }
  - { offsetInCU: 0x3BEC, offset: 0x25269, size: 0x8, addend: 0x0, symName: __ZNSt3__110__function12__value_funcIFvvEE9__as_baseB8ue170006EPv, symObjAddr: 0x728, symBinAddr: 0x10000E104, symSize: 0x14 }
  - { offsetInCU: 0x3C10, offset: 0x2528D, size: 0x8, addend: 0x0, symName: __ZNSt3__18functionIFvvEED2Ev, symObjAddr: 0x73C, symBinAddr: 0x10000E118, symSize: 0x2C }
  - { offsetInCU: 0x3C3C, offset: 0x252B9, size: 0x8, addend: 0x0, symName: __ZNSt3__110__function12__value_funcIFvvEED1B8ue170006Ev, symObjAddr: 0x768, symBinAddr: 0x10000E144, symSize: 0x2C }
  - { offsetInCU: 0x3C66, offset: 0x252E3, size: 0x8, addend: 0x0, symName: __ZNSt3__110__function12__value_funcIFvvEED2B8ue170006Ev, symObjAddr: 0x794, symBinAddr: 0x10000E170, symSize: 0x90 }
  - { offsetInCU: 0x3C90, offset: 0x2530D, size: 0x8, addend: 0x0, symName: __ZNKSt3__110__function12__value_funcIFbvEEclB8ue170006Ev, symObjAddr: 0x824, symBinAddr: 0x10000E200, symSize: 0x54 }
  - { offsetInCU: 0x3CBB, offset: 0x25338, size: 0x8, addend: 0x0, symName: __ZNSt3__117bad_function_callC1Ev, symObjAddr: 0x8B0, symBinAddr: 0x10000E28C, symSize: 0x2C }
  - { offsetInCU: 0x3CE7, offset: 0x25364, size: 0x8, addend: 0x0, symName: __ZNSt3__117bad_function_callD1Ev, symObjAddr: 0x8DC, symBinAddr: 0x10000E2B8, symSize: 0x2C }
  - { offsetInCU: 0x3D11, offset: 0x2538E, size: 0x8, addend: 0x0, symName: __ZNSt3__117bad_function_callC2Ev, symObjAddr: 0x908, symBinAddr: 0x10000E2E4, symSize: 0x44 }
  - { offsetInCU: 0x3D3D, offset: 0x253BA, size: 0x8, addend: 0x0, symName: __ZNSt9exceptionC2B8ue170006Ev, symObjAddr: 0x94C, symBinAddr: 0x10000E328, symSize: 0x24 }
  - { offsetInCU: 0x3D67, offset: 0x253E4, size: 0x8, addend: 0x0, symName: __ZNSt3__117bad_function_callD0Ev, symObjAddr: 0x970, symBinAddr: 0x10000E34C, symSize: 0x30 }
  - { offsetInCU: 0x3D91, offset: 0x2540E, size: 0x8, addend: 0x0, symName: __ZNSt3__117bad_function_callD2Ev, symObjAddr: 0x9A0, symBinAddr: 0x10000E37C, symSize: 0x2C }
  - { offsetInCU: 0x3DBB, offset: 0x25438, size: 0x8, addend: 0x0, symName: __ZNKSt3__110__function12__value_funcIFvvEEclB8ue170006Ev, symObjAddr: 0x9CC, symBinAddr: 0x10000E3A8, symSize: 0x50 }
  - { offsetInCU: 0x26, offset: 0x254C0, size: 0x8, addend: 0x0, symName: __ZN6PlayerC2ENSt3__112basic_stringIcNS0_11char_traitsIcEENS0_9allocatorIcEEEE8Vector2Dfif9DirectionP12SDL_RendererP11SDL_Surface, symObjAddr: 0x0, symBinAddr: 0x10000E3F8, symSize: 0xC8 }
  - { offsetInCU: 0x496E, offset: 0x29E08, size: 0x8, addend: 0x0, symName: __ZN6PlayerC2ENSt3__112basic_stringIcNS0_11char_traitsIcEENS0_9allocatorIcEEEE8Vector2Dfif9DirectionP12SDL_RendererP11SDL_Surface, symObjAddr: 0x0, symBinAddr: 0x10000E3F8, symSize: 0xC8 }
  - { offsetInCU: 0x4A0B, offset: 0x29EA5, size: 0x8, addend: 0x0, symName: __ZN6PlayerC1ENSt3__112basic_stringIcNS0_11char_traitsIcEENS0_9allocatorIcEEEE8Vector2Dfif9DirectionP12SDL_RendererP11SDL_Surface, symObjAddr: 0xC8, symBinAddr: 0x10000E4C0, symSize: 0x74 }
  - { offsetInCU: 0x4AA8, offset: 0x29F42, size: 0x8, addend: 0x0, symName: __ZN6PlayerD2Ev, symObjAddr: 0x13C, symBinAddr: 0x10000E534, symSize: 0x2C }
  - { offsetInCU: 0x4AD3, offset: 0x29F6D, size: 0x8, addend: 0x0, symName: __ZN6PlayerD1Ev, symObjAddr: 0x168, symBinAddr: 0x10000E560, symSize: 0x2C }
  - { offsetInCU: 0x4AFE, offset: 0x29F98, size: 0x8, addend: 0x0, symName: __ZN6Player11handleInputE9Direction, symObjAddr: 0x194, symBinAddr: 0x10000E58C, symSize: 0x258 }
  - { offsetInCU: 0x4B50, offset: 0x29FEA, size: 0x8, addend: 0x0, symName: __ZN8Vector2DC1Ev, symObjAddr: 0x410, symBinAddr: 0x10000E808, symSize: 0x2C }
  - { offsetInCU: 0x4B7A, offset: 0x2A014, size: 0x8, addend: 0x0, symName: __ZN8Vector2DaSERKS_, symObjAddr: 0x478, symBinAddr: 0x10000E834, symSize: 0x40 }
  - { offsetInCU: 0x4BAE, offset: 0x2A048, size: 0x8, addend: 0x0, symName: __ZN6Player6renderEP12SDL_Renderer, symObjAddr: 0x4B8, symBinAddr: 0x10000E874, symSize: 0xA0 }
  - { offsetInCU: 0x4BF2, offset: 0x2A08C, size: 0x8, addend: 0x0, symName: __ZN6Player6updateEfii, symObjAddr: 0x558, symBinAddr: 0x10000E914, symSize: 0x18C }
  - { offsetInCU: 0x4C52, offset: 0x2A0EC, size: 0x8, addend: 0x0, symName: __ZN8Vector2DmlEf, symObjAddr: 0x6E4, symBinAddr: 0x10000EAA0, symSize: 0x4C }
  - { offsetInCU: 0x4C86, offset: 0x2A120, size: 0x8, addend: 0x0, symName: __ZN8Vector2DpLERKS_, symObjAddr: 0x730, symBinAddr: 0x10000EAEC, symSize: 0x50 }
  - { offsetInCU: 0x4CBA, offset: 0x2A154, size: 0x8, addend: 0x0, symName: __ZN8Vector2D10dotProductERKS_, symObjAddr: 0x780, symBinAddr: 0x10000EB3C, symSize: 0x38 }
  - { offsetInCU: 0x4CEE, offset: 0x2A188, size: 0x8, addend: 0x0, symName: __ZN8Vector2D9magnitudeEv, symObjAddr: 0x7B8, symBinAddr: 0x10000EB74, symSize: 0x3C }
  - { offsetInCU: 0x4D14, offset: 0x2A1AE, size: 0x8, addend: 0x0, symName: __ZN8Vector2DC2Ev, symObjAddr: 0x7F4, symBinAddr: 0x10000EBB0, symSize: 0x20 }
  - { offsetInCU: 0x4D3E, offset: 0x2A1D8, size: 0x8, addend: 0x0, symName: __Z4sqrtB8ue170006f, symObjAddr: 0x840, symBinAddr: 0x10000EBD0, symSize: 0x18 }
  - { offsetInCU: 0x5C, offset: 0x2A277, size: 0x8, addend: 0x0, symName: __ZNSt3__119piecewise_constructE, symObjAddr: 0xBA20, symBinAddr: 0x10001AC90, symSize: 0x0 }
  - { offsetInCU: 0x26F, offset: 0x2A48A, size: 0x8, addend: 0x0, symName: __ZNSt3__16chronomiB8ue170006IxNS_5ratioILl1ELl1000000000EEExS3_EENS_11common_typeIJNS0_8durationIT_T0_EENS5_IT1_T2_EEEE4typeERKS8_RKSB_, symObjAddr: 0x2014, symBinAddr: 0x100010898, symSize: 0x70 }
  - { offsetInCU: 0x543, offset: 0x2A75E, size: 0x8, addend: 0x0, symName: __ZNSt3__16chronomiB8ue170006INS0_12steady_clockENS0_8durationIxNS_5ratioILl1ELl1000000000EEEEES6_EENS_11common_typeIJT0_T1_EE4typeERKNS0_10time_pointIT_S8_EERKNSC_ISD_S9_EE, symObjAddr: 0x1968, symBinAddr: 0x100010348, symSize: 0x58 }
  - { offsetInCU: 0x5DB, offset: 0x2A7F6, size: 0x8, addend: 0x0, symName: __ZNSt3__16chrono13duration_castB8ue170006INS0_8durationIfNS_5ratioILl1ELl1EEEEExNS3_ILl1ELl1000000000EEEEENS_9enable_ifIXsr13__is_durationIT_EE5valueES8_E4typeERKNS2_IT0_T1_EE, symObjAddr: 0x2104, symBinAddr: 0x100010988, symSize: 0x30 }
  - { offsetInCU: 0x4C47, offset: 0x2EE62, size: 0x8, addend: 0x0, symName: '__ZNSt3__110__function10__not_nullB8ue170006IZN5Enemy16initDecisionTreeEvE3$_0EEbRKT_', symObjAddr: 0x258C, symBinAddr: 0x100010C34, symSize: 0x18 }
  - { offsetInCU: 0x4C7A, offset: 0x2EE95, size: 0x8, addend: 0x0, symName: '__ZNSt3__110__function10__not_nullB8ue170006IZN5Enemy16initDecisionTreeEvE3$_1EEbRKT_', symObjAddr: 0x4218, symBinAddr: 0x1000125CC, symSize: 0x18 }
  - { offsetInCU: 0x4CAD, offset: 0x2EEC8, size: 0x8, addend: 0x0, symName: '__ZNSt3__110__function10__not_nullB8ue170006IZN5Enemy16initDecisionTreeEvE3$_2EEbRKT_', symObjAddr: 0x5A5C, symBinAddr: 0x100013E10, symSize: 0x18 }
  - { offsetInCU: 0x4CE0, offset: 0x2EEFB, size: 0x8, addend: 0x0, symName: '__ZNSt3__110__function10__not_nullB8ue170006IZN5Enemy16initDecisionTreeEvE3$_3EEbRKT_', symObjAddr: 0x72A0, symBinAddr: 0x100015654, symSize: 0x18 }
  - { offsetInCU: 0x4D13, offset: 0x2EF2E, size: 0x8, addend: 0x0, symName: '__ZNSt3__110__function10__not_nullB8ue170006IZN5Enemy16initDecisionTreeEvE3$_4EEbRKT_', symObjAddr: 0x8C38, symBinAddr: 0x100016F04, symSize: 0x18 }
  - { offsetInCU: 0xB709, offset: 0x35924, size: 0x8, addend: 0x0, symName: '__ZNSt3__116forward_as_tupleB8ue170006IJZN5Enemy16initDecisionTreeEvE3$_0EEENS_5tupleIJDpOT_EEES6_', symObjAddr: 0x2B04, symBinAddr: 0x1000111AC, symSize: 0x2C }
  - { offsetInCU: 0xB743, offset: 0x3595E, size: 0x8, addend: 0x0, symName: '__ZNSt3__116forward_as_tupleB8ue170006IJNS_9allocatorIZN5Enemy16initDecisionTreeEvE3$_0EEEEENS_5tupleIJDpOT_EEES8_', symObjAddr: 0x2B30, symBinAddr: 0x1000111D8, symSize: 0x2C }
  - { offsetInCU: 0xB7C2, offset: 0x359DD, size: 0x8, addend: 0x0, symName: '__ZNSt3__13getB8ue170006ILm0EJOZN5Enemy16initDecisionTreeEvE3$_0EEERNS_13tuple_elementIXT_ENS_5tupleIJDpT0_EEEE4typeERS8_', symObjAddr: 0x2E48, symBinAddr: 0x1000114F0, symSize: 0x24 }
  - { offsetInCU: 0xB805, offset: 0x35A20, size: 0x8, addend: 0x0, symName: '__ZNSt3__13getB8ue170006ILm0EJONS_9allocatorIZN5Enemy16initDecisionTreeEvE3$_0EEEEERNS_13tuple_elementIXT_ENS_5tupleIJDpT0_EEEE4typeERSA_', symObjAddr: 0x2E84, symBinAddr: 0x10001152C, symSize: 0x24 }
  - { offsetInCU: 0xBD51, offset: 0x35F6C, size: 0x8, addend: 0x0, symName: '__ZNSt3__116forward_as_tupleB8ue170006IJRKZN5Enemy16initDecisionTreeEvE3$_0EEENS_5tupleIJDpOT_EEES8_', symObjAddr: 0x351C, symBinAddr: 0x100011AC0, symSize: 0x2C }
  - { offsetInCU: 0xBDA0, offset: 0x35FBB, size: 0x8, addend: 0x0, symName: '__ZNSt3__13getB8ue170006ILm0EJRKZN5Enemy16initDecisionTreeEvE3$_0EEERNS_13tuple_elementIXT_ENS_5tupleIJDpT0_EEEE4typeERS9_', symObjAddr: 0x370C, symBinAddr: 0x100011CB0, symSize: 0x24 }
  - { offsetInCU: 0xBDE3, offset: 0x35FFE, size: 0x8, addend: 0x0, symName: '__ZNSt3__116forward_as_tupleB8ue170006IJRKNS_9allocatorIZN5Enemy16initDecisionTreeEvE3$_0EEEEENS_5tupleIJDpOT_EEESA_', symObjAddr: 0x3B70, symBinAddr: 0x10001200C, symSize: 0x2C }
  - { offsetInCU: 0xBE32, offset: 0x3604D, size: 0x8, addend: 0x0, symName: '__ZNSt3__13getB8ue170006ILm0EJRKNS_9allocatorIZN5Enemy16initDecisionTreeEvE3$_0EEEEERNS_13tuple_elementIXT_ENS_5tupleIJDpT0_EEEE4typeERSB_', symObjAddr: 0x3D54, symBinAddr: 0x1000121F0, symSize: 0x24 }
  - { offsetInCU: 0xBEE6, offset: 0x36101, size: 0x8, addend: 0x0, symName: '__ZNSt3__18__invokeB8ue170006IRZN5Enemy16initDecisionTreeEvE3$_0JEEEDTclclsr3stdE7declvalIT_EEspclsr3stdE7declvalIT0_EEEEOS4_DpOS5_', symObjAddr: 0x3E10, symBinAddr: 0x1000122AC, symSize: 0x24 }
  - { offsetInCU: 0xC08B, offset: 0x362A6, size: 0x8, addend: 0x0, symName: '__ZNSt3__116forward_as_tupleB8ue170006IJZN5Enemy16initDecisionTreeEvE3$_1EEENS_5tupleIJDpOT_EEES6_', symObjAddr: 0x4738, symBinAddr: 0x100012AEC, symSize: 0x2C }
  - { offsetInCU: 0xC0C5, offset: 0x362E0, size: 0x8, addend: 0x0, symName: '__ZNSt3__116forward_as_tupleB8ue170006IJNS_9allocatorIZN5Enemy16initDecisionTreeEvE3$_1EEEEENS_5tupleIJDpOT_EEES8_', symObjAddr: 0x4764, symBinAddr: 0x100012B18, symSize: 0x2C }
  - { offsetInCU: 0xC129, offset: 0x36344, size: 0x8, addend: 0x0, symName: '__ZNSt3__13getB8ue170006ILm0EJOZN5Enemy16initDecisionTreeEvE3$_1EEERNS_13tuple_elementIXT_ENS_5tupleIJDpT0_EEEE4typeERS8_', symObjAddr: 0x4A7C, symBinAddr: 0x100012E30, symSize: 0x24 }
  - { offsetInCU: 0xC16C, offset: 0x36387, size: 0x8, addend: 0x0, symName: '__ZNSt3__13getB8ue170006ILm0EJONS_9allocatorIZN5Enemy16initDecisionTreeEvE3$_1EEEEERNS_13tuple_elementIXT_ENS_5tupleIJDpT0_EEEE4typeERSA_', symObjAddr: 0x4AB8, symBinAddr: 0x100012E6C, symSize: 0x24 }
  - { offsetInCU: 0xC6B8, offset: 0x368D3, size: 0x8, addend: 0x0, symName: '__ZNSt3__116forward_as_tupleB8ue170006IJRKZN5Enemy16initDecisionTreeEvE3$_1EEENS_5tupleIJDpOT_EEES8_', symObjAddr: 0x504C, symBinAddr: 0x100013400, symSize: 0x2C }
  - { offsetInCU: 0xC707, offset: 0x36922, size: 0x8, addend: 0x0, symName: '__ZNSt3__13getB8ue170006ILm0EJRKZN5Enemy16initDecisionTreeEvE3$_1EEERNS_13tuple_elementIXT_ENS_5tupleIJDpT0_EEEE4typeERS9_', symObjAddr: 0x523C, symBinAddr: 0x1000135F0, symSize: 0x24 }
  - { offsetInCU: 0xC74A, offset: 0x36965, size: 0x8, addend: 0x0, symName: '__ZNSt3__116forward_as_tupleB8ue170006IJRKNS_9allocatorIZN5Enemy16initDecisionTreeEvE3$_1EEEEENS_5tupleIJDpOT_EEESA_', symObjAddr: 0x5598, symBinAddr: 0x10001394C, symSize: 0x2C }
  - { offsetInCU: 0xC799, offset: 0x369B4, size: 0x8, addend: 0x0, symName: '__ZNSt3__13getB8ue170006ILm0EJRKNS_9allocatorIZN5Enemy16initDecisionTreeEvE3$_1EEEEERNS_13tuple_elementIXT_ENS_5tupleIJDpT0_EEEE4typeERSB_', symObjAddr: 0x577C, symBinAddr: 0x100013B30, symSize: 0x24 }
  - { offsetInCU: 0xC7DD, offset: 0x369F8, size: 0x8, addend: 0x0, symName: '__ZNSt3__18__invokeB8ue170006IRZN5Enemy16initDecisionTreeEvE3$_1JEEEDTclclsr3stdE7declvalIT_EEspclsr3stdE7declvalIT0_EEEEOS4_DpOS5_', symObjAddr: 0x5838, symBinAddr: 0x100013BEC, symSize: 0x24 }
  - { offsetInCU: 0xC982, offset: 0x36B9D, size: 0x8, addend: 0x0, symName: '__ZNSt3__116forward_as_tupleB8ue170006IJZN5Enemy16initDecisionTreeEvE3$_2EEENS_5tupleIJDpOT_EEES6_', symObjAddr: 0x5F7C, symBinAddr: 0x100014330, symSize: 0x2C }
  - { offsetInCU: 0xC9BC, offset: 0x36BD7, size: 0x8, addend: 0x0, symName: '__ZNSt3__116forward_as_tupleB8ue170006IJNS_9allocatorIZN5Enemy16initDecisionTreeEvE3$_2EEEEENS_5tupleIJDpOT_EEES8_', symObjAddr: 0x5FA8, symBinAddr: 0x10001435C, symSize: 0x2C }
  - { offsetInCU: 0xCA20, offset: 0x36C3B, size: 0x8, addend: 0x0, symName: '__ZNSt3__13getB8ue170006ILm0EJOZN5Enemy16initDecisionTreeEvE3$_2EEERNS_13tuple_elementIXT_ENS_5tupleIJDpT0_EEEE4typeERS8_', symObjAddr: 0x62C0, symBinAddr: 0x100014674, symSize: 0x24 }
  - { offsetInCU: 0xCA63, offset: 0x36C7E, size: 0x8, addend: 0x0, symName: '__ZNSt3__13getB8ue170006ILm0EJONS_9allocatorIZN5Enemy16initDecisionTreeEvE3$_2EEEEERNS_13tuple_elementIXT_ENS_5tupleIJDpT0_EEEE4typeERSA_', symObjAddr: 0x62FC, symBinAddr: 0x1000146B0, symSize: 0x24 }
  - { offsetInCU: 0xCFAF, offset: 0x371CA, size: 0x8, addend: 0x0, symName: '__ZNSt3__116forward_as_tupleB8ue170006IJRKZN5Enemy16initDecisionTreeEvE3$_2EEENS_5tupleIJDpOT_EEES8_', symObjAddr: 0x6890, symBinAddr: 0x100014C44, symSize: 0x2C }
  - { offsetInCU: 0xCFFE, offset: 0x37219, size: 0x8, addend: 0x0, symName: '__ZNSt3__13getB8ue170006ILm0EJRKZN5Enemy16initDecisionTreeEvE3$_2EEERNS_13tuple_elementIXT_ENS_5tupleIJDpT0_EEEE4typeERS9_', symObjAddr: 0x6A80, symBinAddr: 0x100014E34, symSize: 0x24 }
  - { offsetInCU: 0xD041, offset: 0x3725C, size: 0x8, addend: 0x0, symName: '__ZNSt3__116forward_as_tupleB8ue170006IJRKNS_9allocatorIZN5Enemy16initDecisionTreeEvE3$_2EEEEENS_5tupleIJDpOT_EEESA_', symObjAddr: 0x6DDC, symBinAddr: 0x100015190, symSize: 0x2C }
  - { offsetInCU: 0xD090, offset: 0x372AB, size: 0x8, addend: 0x0, symName: '__ZNSt3__13getB8ue170006ILm0EJRKNS_9allocatorIZN5Enemy16initDecisionTreeEvE3$_2EEEEERNS_13tuple_elementIXT_ENS_5tupleIJDpT0_EEEE4typeERSB_', symObjAddr: 0x6FC0, symBinAddr: 0x100015374, symSize: 0x24 }
  - { offsetInCU: 0xD0D4, offset: 0x372EF, size: 0x8, addend: 0x0, symName: '__ZNSt3__18__invokeB8ue170006IRZN5Enemy16initDecisionTreeEvE3$_2JEEEDTclclsr3stdE7declvalIT_EEspclsr3stdE7declvalIT0_EEEEOS4_DpOS5_', symObjAddr: 0x707C, symBinAddr: 0x100015430, symSize: 0x24 }
  - { offsetInCU: 0xD279, offset: 0x37494, size: 0x8, addend: 0x0, symName: '__ZNSt3__116forward_as_tupleB8ue170006IJZN5Enemy16initDecisionTreeEvE3$_3EEENS_5tupleIJDpOT_EEES6_', symObjAddr: 0x781C, symBinAddr: 0x100015BD0, symSize: 0x2C }
  - { offsetInCU: 0xD2B3, offset: 0x374CE, size: 0x8, addend: 0x0, symName: '__ZNSt3__116forward_as_tupleB8ue170006IJNS_9allocatorIZN5Enemy16initDecisionTreeEvE3$_3EEEEENS_5tupleIJDpOT_EEES8_', symObjAddr: 0x7848, symBinAddr: 0x100015BFC, symSize: 0x2C }
  - { offsetInCU: 0xD317, offset: 0x37532, size: 0x8, addend: 0x0, symName: '__ZNSt3__13getB8ue170006ILm0EJOZN5Enemy16initDecisionTreeEvE3$_3EEERNS_13tuple_elementIXT_ENS_5tupleIJDpT0_EEEE4typeERS8_', symObjAddr: 0x7B60, symBinAddr: 0x100015F14, symSize: 0x24 }
  - { offsetInCU: 0xD35A, offset: 0x37575, size: 0x8, addend: 0x0, symName: '__ZNSt3__13getB8ue170006ILm0EJONS_9allocatorIZN5Enemy16initDecisionTreeEvE3$_3EEEEERNS_13tuple_elementIXT_ENS_5tupleIJDpT0_EEEE4typeERSA_', symObjAddr: 0x7B9C, symBinAddr: 0x100015F50, symSize: 0x24 }
  - { offsetInCU: 0xD8A6, offset: 0x37AC1, size: 0x8, addend: 0x0, symName: '__ZNSt3__116forward_as_tupleB8ue170006IJRKZN5Enemy16initDecisionTreeEvE3$_3EEENS_5tupleIJDpOT_EEES8_', symObjAddr: 0x8130, symBinAddr: 0x1000164E4, symSize: 0x2C }
  - { offsetInCU: 0xD8F5, offset: 0x37B10, size: 0x8, addend: 0x0, symName: '__ZNSt3__13getB8ue170006ILm0EJRKZN5Enemy16initDecisionTreeEvE3$_3EEERNS_13tuple_elementIXT_ENS_5tupleIJDpT0_EEEE4typeERS9_', symObjAddr: 0x8320, symBinAddr: 0x1000166D4, symSize: 0x24 }
  - { offsetInCU: 0xD938, offset: 0x37B53, size: 0x8, addend: 0x0, symName: '__ZNSt3__116forward_as_tupleB8ue170006IJRKNS_9allocatorIZN5Enemy16initDecisionTreeEvE3$_3EEEEENS_5tupleIJDpOT_EEESA_', symObjAddr: 0x867C, symBinAddr: 0x100016A30, symSize: 0x2C }
  - { offsetInCU: 0xD987, offset: 0x37BA2, size: 0x8, addend: 0x0, symName: '__ZNSt3__13getB8ue170006ILm0EJRKNS_9allocatorIZN5Enemy16initDecisionTreeEvE3$_3EEEEERNS_13tuple_elementIXT_ENS_5tupleIJDpT0_EEEE4typeERSB_', symObjAddr: 0x8860, symBinAddr: 0x100016C14, symSize: 0x24 }
  - { offsetInCU: 0xDA28, offset: 0x37C43, size: 0x8, addend: 0x0, symName: '__ZNSt3__18__invokeB8ue170006IRZN5Enemy16initDecisionTreeEvE3$_3JEEEDTclclsr3stdE7declvalIT_EEspclsr3stdE7declvalIT0_EEEEOS4_DpOS5_', symObjAddr: 0x8924, symBinAddr: 0x100016CD8, symSize: 0x28 }
  - { offsetInCU: 0xDBD2, offset: 0x37DED, size: 0x8, addend: 0x0, symName: '__ZNSt3__116forward_as_tupleB8ue170006IJZN5Enemy16initDecisionTreeEvE3$_4EEENS_5tupleIJDpOT_EEES6_', symObjAddr: 0x915C, symBinAddr: 0x100017428, symSize: 0x2C }
  - { offsetInCU: 0xDC0C, offset: 0x37E27, size: 0x8, addend: 0x0, symName: '__ZNSt3__116forward_as_tupleB8ue170006IJNS_9allocatorIZN5Enemy16initDecisionTreeEvE3$_4EEEEENS_5tupleIJDpOT_EEES8_', symObjAddr: 0x9188, symBinAddr: 0x100017454, symSize: 0x2C }
  - { offsetInCU: 0xDC70, offset: 0x37E8B, size: 0x8, addend: 0x0, symName: '__ZNSt3__13getB8ue170006ILm0EJOZN5Enemy16initDecisionTreeEvE3$_4EEERNS_13tuple_elementIXT_ENS_5tupleIJDpT0_EEEE4typeERS8_', symObjAddr: 0x94A0, symBinAddr: 0x10001776C, symSize: 0x24 }
  - { offsetInCU: 0xDCB3, offset: 0x37ECE, size: 0x8, addend: 0x0, symName: '__ZNSt3__13getB8ue170006ILm0EJONS_9allocatorIZN5Enemy16initDecisionTreeEvE3$_4EEEEERNS_13tuple_elementIXT_ENS_5tupleIJDpT0_EEEE4typeERSA_', symObjAddr: 0x94DC, symBinAddr: 0x1000177A8, symSize: 0x24 }
  - { offsetInCU: 0xE1FF, offset: 0x3841A, size: 0x8, addend: 0x0, symName: '__ZNSt3__116forward_as_tupleB8ue170006IJRKZN5Enemy16initDecisionTreeEvE3$_4EEENS_5tupleIJDpOT_EEES8_', symObjAddr: 0x9A70, symBinAddr: 0x100017D3C, symSize: 0x2C }
  - { offsetInCU: 0xE24E, offset: 0x38469, size: 0x8, addend: 0x0, symName: '__ZNSt3__13getB8ue170006ILm0EJRKZN5Enemy16initDecisionTreeEvE3$_4EEERNS_13tuple_elementIXT_ENS_5tupleIJDpT0_EEEE4typeERS9_', symObjAddr: 0x9C60, symBinAddr: 0x100017F2C, symSize: 0x24 }
  - { offsetInCU: 0xE291, offset: 0x384AC, size: 0x8, addend: 0x0, symName: '__ZNSt3__116forward_as_tupleB8ue170006IJRKNS_9allocatorIZN5Enemy16initDecisionTreeEvE3$_4EEEEENS_5tupleIJDpOT_EEESA_', symObjAddr: 0x9FBC, symBinAddr: 0x100018288, symSize: 0x2C }
  - { offsetInCU: 0xE2E0, offset: 0x384FB, size: 0x8, addend: 0x0, symName: '__ZNSt3__13getB8ue170006ILm0EJRKNS_9allocatorIZN5Enemy16initDecisionTreeEvE3$_4EEEEERNS_13tuple_elementIXT_ENS_5tupleIJDpT0_EEEE4typeERSB_', symObjAddr: 0xA1A0, symBinAddr: 0x10001846C, symSize: 0x24 }
  - { offsetInCU: 0xE323, offset: 0x3853E, size: 0x8, addend: 0x0, symName: '__ZNSt3__18__invokeB8ue170006IRZN5Enemy16initDecisionTreeEvE3$_4JEEEDTclclsr3stdE7declvalIT_EEspclsr3stdE7declvalIT0_EEEEOS4_DpOS5_', symObjAddr: 0xA264, symBinAddr: 0x100018530, symSize: 0x28 }
  - { offsetInCU: 0xE360, offset: 0x3857B, size: 0x8, addend: 0x0, symName: __ZNSt3__1miB8ue170006IPKP5EnemyS4_EEDTmicldtfp_4baseEcldtfp0_4baseEERKNS_11__wrap_iterIT_EERKNS6_IT0_EE, symObjAddr: 0xA350, symBinAddr: 0x100018598, symSize: 0x48 }
  - { offsetInCU: 0xE3AC, offset: 0x385C7, size: 0x8, addend: 0x0, symName: __ZNSt3__14moveB8ue170006IPP5EnemyS3_EET0_T_S5_S4_, symObjAddr: 0xA410, symBinAddr: 0x100018658, symSize: 0x40 }
  - { offsetInCU: 0xE406, offset: 0x38621, size: 0x8, addend: 0x0, symName: __ZNSt3__16__moveB8ue170006INS_17_ClassicAlgPolicyEPP5EnemyS4_S4_EENS_4pairIT0_T2_EES6_T1_S7_, symObjAddr: 0xA7F8, symBinAddr: 0x100018818, symSize: 0x44 }
  - { offsetInCU: 0xE472, offset: 0x3868D, size: 0x8, addend: 0x0, symName: __ZNSt3__123__dispatch_copy_or_moveB8ue170006INS_17_ClassicAlgPolicyENS_11__move_loopIS1_EENS_14__move_trivialEPP5EnemyS7_S7_EENS_4pairIT2_T4_EES9_T3_SA_, symObjAddr: 0xA83C, symBinAddr: 0x10001885C, symSize: 0x44 }
  - { offsetInCU: 0xE4F0, offset: 0x3870B, size: 0x8, addend: 0x0, symName: __ZNSt3__121__unwrap_and_dispatchB8ue170006INS_10__overloadINS_11__move_loopINS_17_ClassicAlgPolicyEEENS_14__move_trivialEEEPP5EnemyS9_S9_Li0EEENS_4pairIT0_T2_EESB_T1_SC_, symObjAddr: 0xA880, symBinAddr: 0x1000188A0, symSize: 0xB4 }
  - { offsetInCU: 0xE57E, offset: 0x38799, size: 0x8, addend: 0x0, symName: __ZNSt3__114__unwrap_rangeB8ue170006IPP5EnemyS3_EENS_4pairIT0_S5_EET_S7_, symObjAddr: 0xA934, symBinAddr: 0x100018954, symSize: 0x60 }
  - { offsetInCU: 0xE713, offset: 0x3892E, size: 0x8, addend: 0x0, symName: __ZNSt3__113__unwrap_iterB8ue170006IPP5EnemyNS_18__unwrap_iter_implIS3_Lb1EEELi0EEEDTclsrT0_8__unwrapclsr3stdE7declvalIT_EEEES7_, symObjAddr: 0xA9DC, symBinAddr: 0x1000189FC, symSize: 0x24 }
  - { offsetInCU: 0xE757, offset: 0x38972, size: 0x8, addend: 0x0, symName: __ZNSt3__19make_pairB8ue170006IPP5EnemyS3_EENS_4pairINS_18__unwrap_ref_decayIT_E4typeENS5_IT0_E4typeEEEOS6_OS9_, symObjAddr: 0xAA00, symBinAddr: 0x100018A20, symSize: 0x38 }
  - { offsetInCU: 0xE7A6, offset: 0x389C1, size: 0x8, addend: 0x0, symName: __ZNSt3__114__rewrap_rangeB8ue170006IPP5EnemyS3_EET_S4_T0_, symObjAddr: 0xAA38, symBinAddr: 0x100018A58, symSize: 0x2C }
  - { offsetInCU: 0xE7F2, offset: 0x38A0D, size: 0x8, addend: 0x0, symName: __ZNSt3__113__rewrap_iterB8ue170006IPP5EnemyS3_NS_18__unwrap_iter_implIS3_Lb1EEEEET_S6_T0_, symObjAddr: 0xAA64, symBinAddr: 0x100018A84, symSize: 0x3C }
  - { offsetInCU: 0xE847, offset: 0x38A62, size: 0x8, addend: 0x0, symName: __ZNSt3__119__copy_trivial_implB8ue170006IP5EnemyS2_EENS_4pairIPT_PT0_EES5_S5_S7_, symObjAddr: 0xAAA0, symBinAddr: 0x100018AC0, symSize: 0x80 }
  - { offsetInCU: 0xE8AF, offset: 0x38ACA, size: 0x8, addend: 0x0, symName: __ZNSt3__119__constexpr_memmoveB8ue170006IP5EnemyS2_Li0EEEPT_S4_PT0_NS_15__element_countE, symObjAddr: 0xAB20, symBinAddr: 0x100018B40, symSize: 0x64 }
  - { offsetInCU: 0xE91D, offset: 0x38B38, size: 0x8, addend: 0x0, symName: __ZNSt3__19make_pairB8ue170006IRPP5EnemyS3_EENS_4pairINS_18__unwrap_ref_decayIT_E4typeENS6_IT0_E4typeEEEOS7_OSA_, symObjAddr: 0xAB84, symBinAddr: 0x100018BA4, symSize: 0x38 }
  - { offsetInCU: 0xE9E3, offset: 0x38BFE, size: 0x8, addend: 0x0, symName: __ZNSt3__118generate_canonicalB8ue170006IfLm24ENS_23mersenne_twister_engineIjLm32ELm624ELm397ELm31ELj2567483615ELm11ELj4294967295ELm7ELj2636928640ELm15ELj4022730752ELm18ELj1812433253EEEEET_RT1_, symObjAddr: 0xAF60, symBinAddr: 0x100018F80, symSize: 0x118 }
  - { offsetInCU: 0xEE05, offset: 0x39020, size: 0x8, addend: 0x0, symName: __ZNKSt3__16chrono15__duration_castINS0_8durationIxNS_5ratioILl1ELl1000000000EEEEENS2_IfNS3_ILl1ELl1EEEEES4_Lb1ELb0EEclB8ue170006ERKS5_, symObjAddr: 0x2134, symBinAddr: 0x1000109B8, symSize: 0x54 }
  - { offsetInCU: 0xF484, offset: 0x3969F, size: 0x8, addend: 0x0, symName: __ZN5Enemy16initDecisionTreeEv, symObjAddr: 0x2CC, symBinAddr: 0x10000EE4C, symSize: 0x3EC }
  - { offsetInCU: 0x1003C, offset: 0x3A257, size: 0x8, addend: 0x0, symName: __Z3powB8ue170006IfiENSt3__19enable_ifIXaasr3std13is_arithmeticIT_EE5valuesr3std13is_arithmeticIT0_EE5valueENS0_9__promoteIS2_S3_vEEE4type4typeES2_S3_, symObjAddr: 0x1C20, symBinAddr: 0x1000105D8, symSize: 0x3C }
  - { offsetInCU: 0x11F7F, offset: 0x3C19A, size: 0x8, addend: 0x0, symName: __ZN5EnemyC2ENSt3__112basic_stringIcNS0_11char_traitsIcEENS0_9allocatorIcEEEE8Vector2DfifP12SDL_RendererP11SDL_Surface, symObjAddr: 0x0, symBinAddr: 0x10000EBE8, symSize: 0x150 }
  - { offsetInCU: 0x1200E, offset: 0x3C229, size: 0x8, addend: 0x0, symName: __ZNSt3__16chrono10time_pointINS0_12steady_clockENS0_8durationIxNS_5ratioILl1ELl1000000000EEEEEEC1B8ue170006Ev, symObjAddr: 0x1B8, symBinAddr: 0x10000ED38, symSize: 0x2C }
  - { offsetInCU: 0x12038, offset: 0x3C253, size: 0x8, addend: 0x0, symName: __ZN5Enemy12initMovementEv, symObjAddr: 0x1E4, symBinAddr: 0x10000ED64, symSize: 0xE8 }
  - { offsetInCU: 0x1208A, offset: 0x3C2A5, size: 0x8, addend: 0x0, symName: __ZN5EnemyC1ENSt3__112basic_stringIcNS0_11char_traitsIcEENS0_9allocatorIcEEEE8Vector2DfifP12SDL_RendererP11SDL_Surface, symObjAddr: 0x6B8, symBinAddr: 0x10000F238, symSize: 0x6C }
  - { offsetInCU: 0x12119, offset: 0x3C334, size: 0x8, addend: 0x0, symName: __ZN5EnemyD2Ev, symObjAddr: 0x724, symBinAddr: 0x10000F2A4, symSize: 0x2C }
  - { offsetInCU: 0x12145, offset: 0x3C360, size: 0x8, addend: 0x0, symName: __ZN5EnemyD1Ev, symObjAddr: 0x750, symBinAddr: 0x10000F2D0, symSize: 0x2C }
  - { offsetInCU: 0x12171, offset: 0x3C38C, size: 0x8, addend: 0x0, symName: __ZN5Enemy10applyForceEfR8Vector2DS0_, symObjAddr: 0x77C, symBinAddr: 0x10000F2FC, symSize: 0x88 }
  - { offsetInCU: 0x121DF, offset: 0x3C3FA, size: 0x8, addend: 0x0, symName: __Z3absB8ue170006f, symObjAddr: 0x854, symBinAddr: 0x10000F384, symSize: 0x18 }
  - { offsetInCU: 0x1220A, offset: 0x3C425, size: 0x8, addend: 0x0, symName: __Z3cosB8ue170006f, symObjAddr: 0x86C, symBinAddr: 0x10000F39C, symSize: 0x24 }
  - { offsetInCU: 0x12238, offset: 0x3C453, size: 0x8, addend: 0x0, symName: __Z3sinB8ue170006f, symObjAddr: 0x890, symBinAddr: 0x10000F3C0, symSize: 0x24 }
  - { offsetInCU: 0x12267, offset: 0x3C482, size: 0x8, addend: 0x0, symName: __ZN8Vector2D9normalizeEv, symObjAddr: 0x8B4, symBinAddr: 0x10000F3E4, symSize: 0x84 }
  - { offsetInCU: 0x1229A, offset: 0x3C4B5, size: 0x8, addend: 0x0, symName: __Z13getRandomTimev, symObjAddr: 0x978, symBinAddr: 0x10000F468, symSize: 0xA0 }
  - { offsetInCU: 0x122E2, offset: 0x3C4FD, size: 0x8, addend: 0x0, symName: __Z20getRandomVelocityMagv, symObjAddr: 0xA18, symBinAddr: 0x10000F508, symSize: 0xA0 }
  - { offsetInCU: 0x1236C, offset: 0x3C587, size: 0x8, addend: 0x0, symName: '__ZNSt3__18functionIFvvEEC1IZN5Enemy16initDecisionTreeEvE3$_0vEET_', symObjAddr: 0xAB8, symBinAddr: 0x10000F5A8, symSize: 0x34 }
  - { offsetInCU: 0x123B1, offset: 0x3C5CC, size: 0x8, addend: 0x0, symName: '__ZNSt3__18functionIFvvEEC1IZN5Enemy16initDecisionTreeEvE3$_1vEET_', symObjAddr: 0xB18, symBinAddr: 0x10000F5DC, symSize: 0x34 }
  - { offsetInCU: 0x123F6, offset: 0x3C611, size: 0x8, addend: 0x0, symName: '__ZNSt3__18functionIFvvEEC1IZN5Enemy16initDecisionTreeEvE3$_2vEET_', symObjAddr: 0xB4C, symBinAddr: 0x10000F610, symSize: 0x34 }
  - { offsetInCU: 0x1247C, offset: 0x3C697, size: 0x8, addend: 0x0, symName: '__ZNSt3__18functionIFbvEEC1IZN5Enemy16initDecisionTreeEvE3$_3vEET_', symObjAddr: 0xB80, symBinAddr: 0x10000F644, symSize: 0x34 }
  - { offsetInCU: 0x124C1, offset: 0x3C6DC, size: 0x8, addend: 0x0, symName: '__ZNSt3__18functionIFbvEEC1IZN5Enemy16initDecisionTreeEvE3$_4vEET_', symObjAddr: 0xBE0, symBinAddr: 0x10000F678, symSize: 0x34 }
  - { offsetInCU: 0x12506, offset: 0x3C721, size: 0x8, addend: 0x0, symName: __ZN5Enemy4idleEv, symObjAddr: 0xC14, symBinAddr: 0x10000F6AC, symSize: 0x10 }
  - { offsetInCU: 0x1252E, offset: 0x3C749, size: 0x8, addend: 0x0, symName: __ZN5Enemy5chaseEv, symObjAddr: 0xC24, symBinAddr: 0x10000F6BC, symSize: 0x90 }
  - { offsetInCU: 0x12572, offset: 0x3C78D, size: 0x8, addend: 0x0, symName: __ZN8Vector2DmiERKS_, symObjAddr: 0xCB4, symBinAddr: 0x10000F74C, symSize: 0x54 }
  - { offsetInCU: 0x125A6, offset: 0x3C7C1, size: 0x8, addend: 0x0, symName: __ZN5Enemy4fleeEv, symObjAddr: 0xD08, symBinAddr: 0x10000F7A0, symSize: 0x10 }
  - { offsetInCU: 0x125CE, offset: 0x3C7E9, size: 0x8, addend: 0x0, symName: __ZN5Enemy16isPredatorNearbyEv, symObjAddr: 0xD18, symBinAddr: 0x10000F7B0, symSize: 0x1C }
  - { offsetInCU: 0x125F6, offset: 0x3C811, size: 0x8, addend: 0x0, symName: __ZN5Enemy12isPreyNearbyEv, symObjAddr: 0xD34, symBinAddr: 0x10000F7CC, symSize: 0x1C }
  - { offsetInCU: 0x1261E, offset: 0x3C839, size: 0x8, addend: 0x0, symName: __ZN5Enemy20traverseDecisionTreeEv, symObjAddr: 0xD50, symBinAddr: 0x10000F7E8, symSize: 0x50 }
  - { offsetInCU: 0x12646, offset: 0x3C861, size: 0x8, addend: 0x0, symName: __ZN5Enemy12detectFishesER9GameStateRPS_RP6PlayeriRNSt3__16vectorIS2_NS7_9allocatorIS2_EEEE, symObjAddr: 0xDA0, symBinAddr: 0x10000F838, symSize: 0x5F0 }
  - { offsetInCU: 0x126F3, offset: 0x3C90E, size: 0x8, addend: 0x0, symName: __Z18collisionDetection6CircleS_, symObjAddr: 0x13DC, symBinAddr: 0x10000FE28, symSize: 0x120 }
  - { offsetInCU: 0x1273C, offset: 0x3C957, size: 0x8, addend: 0x0, symName: __Z17playerScoreUpdateP5EnemyRP6Player, symObjAddr: 0x14FC, symBinAddr: 0x10000FF48, symSize: 0xC4 }
  - { offsetInCU: 0x12773, offset: 0x3C98E, size: 0x8, addend: 0x0, symName: __ZNSt3__16vectorIP5EnemyNS_9allocatorIS2_EEE5eraseB8ue170006ENS_11__wrap_iterIPKS2_EE, symObjAddr: 0x15C0, symBinAddr: 0x10001000C, symSize: 0x94 }
  - { offsetInCU: 0x127C8, offset: 0x3C9E3, size: 0x8, addend: 0x0, symName: __ZNKSt3__111__wrap_iterIPP5EnemyEplB8ue170006El, symObjAddr: 0x1684, symBinAddr: 0x1000100A0, symSize: 0x3C }
  - { offsetInCU: 0x12814, offset: 0x3CA2F, size: 0x8, addend: 0x0, symName: __ZNSt3__111__wrap_iterIPKP5EnemyEC1B8ue170006IPS2_EERKNS0_IT_EEPNS_9enable_ifIXsr14is_convertibleIS8_S4_EE5valueEvE4typeE, symObjAddr: 0x16C0, symBinAddr: 0x1000100DC, symSize: 0x3C }
  - { offsetInCU: 0x12860, offset: 0x3CA7B, size: 0x8, addend: 0x0, symName: __ZN5Enemy14updatePositionEfii, symObjAddr: 0x16FC, symBinAddr: 0x100010118, symSize: 0x230 }
  - { offsetInCU: 0x12908, offset: 0x3CB23, size: 0x8, addend: 0x0, symName: __ZNSt3__16chrono8durationIfNS_5ratioILl1ELl1EEEEC1B8ue170006IxNS2_ILl1ELl1000000000EEEEERKNS1_IT_T0_EEPNS_9enable_ifIXaasr13__no_overflowIS8_S3_EE5valueooL_ZNS_17integral_constantIbLb1EE5valueEEaaeqsr13__no_overflowIS8_S3_E4typeE3denLi1Entsr23treat_as_floating_pointIS7_EE5valueEvE4typeE, symObjAddr: 0x19C0, symBinAddr: 0x1000103A0, symSize: 0x3C }
  - { offsetInCU: 0x1295E, offset: 0x3CB79, size: 0x8, addend: 0x0, symName: __ZNKSt3__16chrono8durationIfNS_5ratioILl1ELl1EEEE5countB8ue170006Ev, symObjAddr: 0x19FC, symBinAddr: 0x1000103DC, symSize: 0x18 }
  - { offsetInCU: 0x12984, offset: 0x3CB9F, size: 0x8, addend: 0x0, symName: __ZN5Enemy6renderEP12SDL_Renderer, symObjAddr: 0x1A14, symBinAddr: 0x1000103F4, symSize: 0x48 }
  - { offsetInCU: 0x129C7, offset: 0x3CBE2, size: 0x8, addend: 0x0, symName: __Z25enemiesCollisionDetection6CircleNSt3__16vectorIS_NS0_9allocatorIS_EEEE, symObjAddr: 0x1A5C, symBinAddr: 0x10001043C, symSize: 0x19C }
  - { offsetInCU: 0x12A3B, offset: 0x3CC56, size: 0x8, addend: 0x0, symName: __ZNSt3__16vectorI6CircleNS_9allocatorIS1_EEEixB8ue170006Em, symObjAddr: 0x1C5C, symBinAddr: 0x100010614, symSize: 0x2C }
  - { offsetInCU: 0x12A95, offset: 0x3CCB0, size: 0x8, addend: 0x0, symName: __ZNSt3__113random_deviceC1B8ue170006Ev, symObjAddr: 0x1C88, symBinAddr: 0x100010640, symSize: 0x74 }
  - { offsetInCU: 0x12ABF, offset: 0x3CCDA, size: 0x8, addend: 0x0, symName: __ZNSt3__123mersenne_twister_engineIjLm32ELm624ELm397ELm31ELj2567483615ELm11ELj4294967295ELm7ELj2636928640ELm15ELj4022730752ELm18ELj1812433253EEC1B8ue170006Ej, symObjAddr: 0x1CFC, symBinAddr: 0x1000106B4, symSize: 0x34 }
  - { offsetInCU: 0x12B1A, offset: 0x3CD35, size: 0x8, addend: 0x0, symName: __ZNSt3__125uniform_real_distributionIfEC1B8ue170006Eff, symObjAddr: 0x1D30, symBinAddr: 0x1000106E8, symSize: 0x3C }
  - { offsetInCU: 0x12B65, offset: 0x3CD80, size: 0x8, addend: 0x0, symName: __ZNSt3__125uniform_real_distributionIfEclB8ue170006INS_23mersenne_twister_engineIjLm32ELm624ELm397ELm31ELj2567483615ELm11ELj4294967295ELm7ELj2636928640ELm15ELj4022730752ELm18ELj1812433253EEEEEfRT_, symObjAddr: 0x1D6C, symBinAddr: 0x100010724, symSize: 0x30 }
  - { offsetInCU: 0x12BA2, offset: 0x3CDBD, size: 0x8, addend: 0x0, symName: __ZNSt3__16chrono10time_pointINS0_12steady_clockENS0_8durationIxNS_5ratioILl1ELl1000000000EEEEEEC2B8ue170006Ev, symObjAddr: 0x1E94, symBinAddr: 0x100010754, symSize: 0x34 }
  - { offsetInCU: 0x12BCC, offset: 0x3CDE7, size: 0x8, addend: 0x0, symName: __ZNSt3__16chrono8durationIxNS_5ratioILl1ELl1000000000EEEE4zeroB8ue170006Ev, symObjAddr: 0x1EC8, symBinAddr: 0x100010788, symSize: 0x3C }
  - { offsetInCU: 0x12BE0, offset: 0x3CDFB, size: 0x8, addend: 0x0, symName: __ZNSt3__16chrono15duration_valuesIxE4zeroB8ue170006Ev, symObjAddr: 0x1F04, symBinAddr: 0x1000107C4, symSize: 0x8 }
  - { offsetInCU: 0x12BFE, offset: 0x3CE19, size: 0x8, addend: 0x0, symName: __ZNSt3__16chrono8durationIxNS_5ratioILl1ELl1000000000EEEEC1B8ue170006IxEERKT_PNS_9enable_ifIXaasr14is_convertibleIS8_xEE5valueooL_ZNS_17integral_constantIbLb0EE5valueEEntsr23treat_as_floating_pointIS6_EE5valueEvE4typeE, symObjAddr: 0x1F0C, symBinAddr: 0x1000107CC, symSize: 0x3C }
  - { offsetInCU: 0x12C4A, offset: 0x3CE65, size: 0x8, addend: 0x0, symName: __ZNSt3__16chrono8durationIxNS_5ratioILl1ELl1000000000EEEEC2B8ue170006IxEERKT_PNS_9enable_ifIXaasr14is_convertibleIS8_xEE5valueooL_ZNS_17integral_constantIbLb0EE5valueEEntsr23treat_as_floating_pointIS6_EE5valueEvE4typeE, symObjAddr: 0x1F54, symBinAddr: 0x100010808, symSize: 0x28 }
  - { offsetInCU: 0x12C96, offset: 0x3CEB1, size: 0x8, addend: 0x0, symName: __ZNSt3__111__wrap_iterIPP5EnemyEpLB8ue170006El, symObjAddr: 0x1F7C, symBinAddr: 0x100010830, symSize: 0x28 }
  - { offsetInCU: 0x12CCA, offset: 0x3CEE5, size: 0x8, addend: 0x0, symName: __ZNSt3__111__wrap_iterIPKP5EnemyEC2B8ue170006IPS2_EERKNS0_IT_EEPNS_9enable_ifIXsr14is_convertibleIS8_S4_EE5valueEvE4typeE, symObjAddr: 0x1FA4, symBinAddr: 0x100010858, symSize: 0x40 }
  - { offsetInCU: 0x12D16, offset: 0x3CF31, size: 0x8, addend: 0x0, symName: __ZNKSt3__16chrono10time_pointINS0_12steady_clockENS0_8durationIxNS_5ratioILl1ELl1000000000EEEEEE16time_since_epochB8ue170006Ev, symObjAddr: 0x2084, symBinAddr: 0x100010908, symSize: 0x20 }
  - { offsetInCU: 0x12D3C, offset: 0x3CF57, size: 0x8, addend: 0x0, symName: __ZNKSt3__16chrono8durationIxNS_5ratioILl1ELl1000000000EEEE5countB8ue170006Ev, symObjAddr: 0x20A4, symBinAddr: 0x100010928, symSize: 0x18 }
  - { offsetInCU: 0x12D62, offset: 0x3CF7D, size: 0x8, addend: 0x0, symName: __ZNSt3__16chrono8durationIfNS_5ratioILl1ELl1EEEEC2B8ue170006IxNS2_ILl1ELl1000000000EEEEERKNS1_IT_T0_EEPNS_9enable_ifIXaasr13__no_overflowIS8_S3_EE5valueooL_ZNS_17integral_constantIbLb1EE5valueEEaaeqsr13__no_overflowIS8_S3_E4typeE3denLi1Entsr23treat_as_floating_pointIS7_EE5valueEvE4typeE, symObjAddr: 0x20BC, symBinAddr: 0x100010940, symSize: 0x48 }
  - { offsetInCU: 0x12DC2, offset: 0x3CFDD, size: 0x8, addend: 0x0, symName: __ZNSt3__16chrono8durationIfNS_5ratioILl1ELl1EEEEC1B8ue170006IfEERKT_PNS_9enable_ifIXaasr14is_convertibleIS8_fEE5valueooL_ZNS_17integral_constantIbLb1EE5valueEEntsr23treat_as_floating_pointIS6_EE5valueEvE4typeE, symObjAddr: 0x2188, symBinAddr: 0x100010A0C, symSize: 0x3C }
  - { offsetInCU: 0x12E0E, offset: 0x3D029, size: 0x8, addend: 0x0, symName: __ZNSt3__16chrono8durationIfNS_5ratioILl1ELl1EEEEC2B8ue170006IfEERKT_PNS_9enable_ifIXaasr14is_convertibleIS8_fEE5valueooL_ZNS_17integral_constantIbLb1EE5valueEEntsr23treat_as_floating_pointIS6_EE5valueEvE4typeE, symObjAddr: 0x21C4, symBinAddr: 0x100010A48, symSize: 0x28 }
  - { offsetInCU: 0x12E5F, offset: 0x3D07A, size: 0x8, addend: 0x0, symName: '__ZNSt3__18functionIFvvEEC2IZN5Enemy16initDecisionTreeEvE3$_0vEET_', symObjAddr: 0x23C8, symBinAddr: 0x100010A70, symSize: 0x38 }
  - { offsetInCU: 0x12EA4, offset: 0x3D0BF, size: 0x8, addend: 0x0, symName: '__ZNSt3__110__function12__value_funcIFvvEEC1B8ue170006IZN5Enemy16initDecisionTreeEvE3$_0vEEOT_', symObjAddr: 0x2400, symBinAddr: 0x100010AA8, symSize: 0x50 }
  - { offsetInCU: 0x12EE7, offset: 0x3D102, size: 0x8, addend: 0x0, symName: '__ZNSt3__19allocatorIZN5Enemy16initDecisionTreeEvE3$_0EC1B8ue170006Ev', symObjAddr: 0x2450, symBinAddr: 0x100010AF8, symSize: 0x2C }
  - { offsetInCU: 0x12F11, offset: 0x3D12C, size: 0x8, addend: 0x0, symName: '__ZNSt3__110__function12__value_funcIFvvEEC1B8ue170006IZN5Enemy16initDecisionTreeEvE3$_0NS_9allocatorIS6_EEEEOT_RKT0_', symObjAddr: 0x247C, symBinAddr: 0x100010B24, symSize: 0x3C }
  - { offsetInCU: 0x12F6B, offset: 0x3D186, size: 0x8, addend: 0x0, symName: '__ZNSt3__19allocatorIZN5Enemy16initDecisionTreeEvE3$_0EC2B8ue170006Ev', symObjAddr: 0x24B8, symBinAddr: 0x100010B60, symSize: 0x2C }
  - { offsetInCU: 0x12F95, offset: 0x3D1B0, size: 0x8, addend: 0x0, symName: '__ZNSt3__116__non_trivial_ifILb1ENS_9allocatorIZN5Enemy16initDecisionTreeEvE3$_0EEEC2B8ue170006Ev', symObjAddr: 0x24E4, symBinAddr: 0x100010B8C, symSize: 0x14 }
  - { offsetInCU: 0x12FBF, offset: 0x3D1DA, size: 0x8, addend: 0x0, symName: '__ZNSt3__110__function12__value_funcIFvvEEC2B8ue170006IZN5Enemy16initDecisionTreeEvE3$_0NS_9allocatorIS6_EEEEOT_RKT0_', symObjAddr: 0x24F8, symBinAddr: 0x100010BA0, symSize: 0x94 }
  - { offsetInCU: 0x13065, offset: 0x3D280, size: 0x8, addend: 0x0, symName: '__ZNSt3__19allocatorINS_10__function6__funcIZN5Enemy16initDecisionTreeEvE3$_0NS0_IS4_EEFvvEEEEC1B8ue170006IS4_EERKNS0_IT_EE', symObjAddr: 0x25A4, symBinAddr: 0x100010C4C, symSize: 0x34 }
  - { offsetInCU: 0x130A8, offset: 0x3D2C3, size: 0x8, addend: 0x0, symName: '__ZNSt3__19allocatorIZN5Enemy16initDecisionTreeEvE3$_0EC1B8ue170006INS_10__function6__funcIS2_S3_FvvEEEEERKNS0_IT_EE', symObjAddr: 0x25D8, symBinAddr: 0x100010C80, symSize: 0x34 }
  - { offsetInCU: 0x130E6, offset: 0x3D301, size: 0x8, addend: 0x0, symName: '__ZNSt3__110__function6__funcIZN5Enemy16initDecisionTreeEvE3$_0NS_9allocatorIS3_EEFvvEEC1B8ue170006EOS3_OS5_', symObjAddr: 0x260C, symBinAddr: 0x100010CB4, symSize: 0x3C }
  - { offsetInCU: 0x1312E, offset: 0x3D349, size: 0x8, addend: 0x0, symName: '__ZNSt3__19allocatorINS_10__function6__funcIZN5Enemy16initDecisionTreeEvE3$_0NS0_IS4_EEFvvEEEEC2B8ue170006IS4_EERKNS0_IT_EE', symObjAddr: 0x2648, symBinAddr: 0x100010CF0, symSize: 0x30 }
  - { offsetInCU: 0x1316C, offset: 0x3D387, size: 0x8, addend: 0x0, symName: '__ZNSt3__116__non_trivial_ifILb1ENS_9allocatorINS_10__function6__funcIZN5Enemy16initDecisionTreeEvE3$_0NS1_IS5_EEFvvEEEEEEC2B8ue170006Ev', symObjAddr: 0x2678, symBinAddr: 0x100010D20, symSize: 0x14 }
  - { offsetInCU: 0x13196, offset: 0x3D3B1, size: 0x8, addend: 0x0, symName: '__ZNSt3__19allocatorIZN5Enemy16initDecisionTreeEvE3$_0EC2B8ue170006INS_10__function6__funcIS2_S3_FvvEEEEERKNS0_IT_EE', symObjAddr: 0x268C, symBinAddr: 0x100010D34, symSize: 0x30 }
  - { offsetInCU: 0x131D4, offset: 0x3D3EF, size: 0x8, addend: 0x0, symName: '__ZNSt3__110__function6__funcIZN5Enemy16initDecisionTreeEvE3$_0NS_9allocatorIS3_EEFvvEEC2B8ue170006EOS3_OS5_', symObjAddr: 0x26BC, symBinAddr: 0x100010D64, symSize: 0x88 }
  - { offsetInCU: 0x1321C, offset: 0x3D437, size: 0x8, addend: 0x0, symName: __ZNSt3__110__function6__baseIFvvEEC2B8ue170006Ev, symObjAddr: 0x2744, symBinAddr: 0x100010DEC, symSize: 0x24 }
  - { offsetInCU: 0x13246, offset: 0x3D461, size: 0x8, addend: 0x0, symName: '__ZNSt3__110__function12__alloc_funcIZN5Enemy16initDecisionTreeEvE3$_0NS_9allocatorIS3_EEFvvEEC1B8ue170006EOS3_OS5_', symObjAddr: 0x2768, symBinAddr: 0x100010E10, symSize: 0x3C }
  - { offsetInCU: 0x1328C, offset: 0x3D4A7, size: 0x8, addend: 0x0, symName: __ZNSt3__110__function6__baseIFvvEED2Ev, symObjAddr: 0x27A4, symBinAddr: 0x100010E4C, symSize: 0x14 }
  - { offsetInCU: 0x132B6, offset: 0x3D4D1, size: 0x8, addend: 0x0, symName: '__ZNSt3__110__function6__funcIZN5Enemy16initDecisionTreeEvE3$_0NS_9allocatorIS3_EEFvvEED1Ev', symObjAddr: 0x27B8, symBinAddr: 0x100010E60, symSize: 0x2C }
  - { offsetInCU: 0x132E3, offset: 0x3D4FE, size: 0x8, addend: 0x0, symName: '__ZNSt3__110__function6__funcIZN5Enemy16initDecisionTreeEvE3$_0NS_9allocatorIS3_EEFvvEED0Ev', symObjAddr: 0x27E4, symBinAddr: 0x100010E8C, symSize: 0x30 }
  - { offsetInCU: 0x13310, offset: 0x3D52B, size: 0x8, addend: 0x0, symName: '__ZNKSt3__110__function6__funcIZN5Enemy16initDecisionTreeEvE3$_0NS_9allocatorIS3_EEFvvEE7__cloneEv', symObjAddr: 0x2814, symBinAddr: 0x100010EBC, symSize: 0xFC }
  - { offsetInCU: 0x13362, offset: 0x3D57D, size: 0x8, addend: 0x0, symName: '__ZNKSt3__110__function6__funcIZN5Enemy16initDecisionTreeEvE3$_0NS_9allocatorIS3_EEFvvEE7__cloneEPNS0_6__baseIS6_EE', symObjAddr: 0x2910, symBinAddr: 0x100010FB8, symSize: 0x58 }
  - { offsetInCU: 0x13399, offset: 0x3D5B4, size: 0x8, addend: 0x0, symName: '__ZNSt3__110__function6__funcIZN5Enemy16initDecisionTreeEvE3$_0NS_9allocatorIS3_EEFvvEE7destroyEv', symObjAddr: 0x2968, symBinAddr: 0x100011010, symSize: 0x28 }
  - { offsetInCU: 0x133C1, offset: 0x3D5DC, size: 0x8, addend: 0x0, symName: '__ZNSt3__110__function6__funcIZN5Enemy16initDecisionTreeEvE3$_0NS_9allocatorIS3_EEFvvEE18destroy_deallocateEv', symObjAddr: 0x2990, symBinAddr: 0x100011038, symSize: 0x58 }
  - { offsetInCU: 0x13404, offset: 0x3D61F, size: 0x8, addend: 0x0, symName: '__ZNSt3__110__function6__funcIZN5Enemy16initDecisionTreeEvE3$_0NS_9allocatorIS3_EEFvvEEclEv', symObjAddr: 0x29E8, symBinAddr: 0x100011090, symSize: 0x28 }
  - { offsetInCU: 0x1342C, offset: 0x3D647, size: 0x8, addend: 0x0, symName: '__ZNKSt3__110__function6__funcIZN5Enemy16initDecisionTreeEvE3$_0NS_9allocatorIS3_EEFvvEE6targetERKSt9type_info', symObjAddr: 0x2A10, symBinAddr: 0x1000110B8, symSize: 0x60 }
  - { offsetInCU: 0x13463, offset: 0x3D67E, size: 0x8, addend: 0x0, symName: '__ZNKSt3__110__function6__funcIZN5Enemy16initDecisionTreeEvE3$_0NS_9allocatorIS3_EEFvvEE11target_typeEv', symObjAddr: 0x2A70, symBinAddr: 0x100011118, symSize: 0x18 }
  - { offsetInCU: 0x1348B, offset: 0x3D6A6, size: 0x8, addend: 0x0, symName: __ZNSt3__110__function6__baseIFvvEED1Ev, symObjAddr: 0x2A88, symBinAddr: 0x100011130, symSize: 0x14 }
  - { offsetInCU: 0x134B5, offset: 0x3D6D0, size: 0x8, addend: 0x0, symName: __ZNSt3__110__function6__baseIFvvEED0Ev, symObjAddr: 0x2A9C, symBinAddr: 0x100011144, symSize: 0xC }
  - { offsetInCU: 0x134DF, offset: 0x3D6FA, size: 0x8, addend: 0x0, symName: '__ZNSt3__110__function12__alloc_funcIZN5Enemy16initDecisionTreeEvE3$_0NS_9allocatorIS3_EEFvvEEC2B8ue170006EOS3_OS5_', symObjAddr: 0x2AA8, symBinAddr: 0x100011150, symSize: 0x5C }
  - { offsetInCU: 0x13525, offset: 0x3D740, size: 0x8, addend: 0x0, symName: '__ZNSt3__117__compressed_pairIZN5Enemy16initDecisionTreeEvE3$_0NS_9allocatorIS2_EEEC1B8ue170006IJOS2_EJOS4_EEENS_21piecewise_construct_tENS_5tupleIJDpT_EEENSA_IJDpT0_EEE', symObjAddr: 0x2B5C, symBinAddr: 0x100011204, symSize: 0x3C }
  - { offsetInCU: 0x1358F, offset: 0x3D7AA, size: 0x8, addend: 0x0, symName: '__ZNSt3__15tupleIJOZN5Enemy16initDecisionTreeEvE3$_0EEC1B8ue170006IJS2_ELi0EEEDpOT_', symObjAddr: 0x2B98, symBinAddr: 0x100011240, symSize: 0x34 }
  - { offsetInCU: 0x135D9, offset: 0x3D7F4, size: 0x8, addend: 0x0, symName: '__ZNSt3__15tupleIJOZN5Enemy16initDecisionTreeEvE3$_0EEC2B8ue170006IJS2_ELi0EEEDpOT_', symObjAddr: 0x2BCC, symBinAddr: 0x100011274, symSize: 0x34 }
  - { offsetInCU: 0x13623, offset: 0x3D83E, size: 0x8, addend: 0x0, symName: '__ZNSt3__112__tuple_implINS_15__tuple_indicesIJLm0EEEEJOZN5Enemy16initDecisionTreeEvE3$_0EEC1B8ue170006IJLm0EEJS5_EJEJEJS4_EEENS1_IJXspT_EEEENS_13__tuple_typesIJDpT0_EEENS1_IJXspT1_EEEENS9_IJDpT2_EEEDpOT3_', symObjAddr: 0x2C00, symBinAddr: 0x1000112A8, symSize: 0x34 }
  - { offsetInCU: 0x136B4, offset: 0x3D8CF, size: 0x8, addend: 0x0, symName: '__ZNSt3__112__tuple_implINS_15__tuple_indicesIJLm0EEEEJOZN5Enemy16initDecisionTreeEvE3$_0EEC2B8ue170006IJLm0EEJS5_EJEJEJS4_EEENS1_IJXspT_EEEENS_13__tuple_typesIJDpT0_EEENS1_IJXspT1_EEEENS9_IJDpT2_EEEDpOT3_', symObjAddr: 0x2C34, symBinAddr: 0x1000112DC, symSize: 0x34 }
  - { offsetInCU: 0x13745, offset: 0x3D960, size: 0x8, addend: 0x0, symName: '__ZNSt3__112__tuple_leafILm0EOZN5Enemy16initDecisionTreeEvE3$_0Lb0EEC2B8ue170006IS2_vEEOT_', symObjAddr: 0x2C68, symBinAddr: 0x100011310, symSize: 0x20 }
  - { offsetInCU: 0x13788, offset: 0x3D9A3, size: 0x8, addend: 0x0, symName: '__ZNSt3__15tupleIJONS_9allocatorIZN5Enemy16initDecisionTreeEvE3$_0EEEEC1B8ue170006IJS4_ELi0EEEDpOT_', symObjAddr: 0x2C88, symBinAddr: 0x100011330, symSize: 0x34 }
  - { offsetInCU: 0x137D2, offset: 0x3D9ED, size: 0x8, addend: 0x0, symName: '__ZNSt3__15tupleIJONS_9allocatorIZN5Enemy16initDecisionTreeEvE3$_0EEEEC2B8ue170006IJS4_ELi0EEEDpOT_', symObjAddr: 0x2CBC, symBinAddr: 0x100011364, symSize: 0x34 }
  - { offsetInCU: 0x1381C, offset: 0x3DA37, size: 0x8, addend: 0x0, symName: '__ZNSt3__112__tuple_implINS_15__tuple_indicesIJLm0EEEEJONS_9allocatorIZN5Enemy16initDecisionTreeEvE3$_0EEEEC1B8ue170006IJLm0EEJS7_EJEJEJS6_EEENS1_IJXspT_EEEENS_13__tuple_typesIJDpT0_EEENS1_IJXspT1_EEEENSB_IJDpT2_EEEDpOT3_', symObjAddr: 0x2CF0, symBinAddr: 0x100011398, symSize: 0x34 }
  - { offsetInCU: 0x138AD, offset: 0x3DAC8, size: 0x8, addend: 0x0, symName: '__ZNSt3__112__tuple_implINS_15__tuple_indicesIJLm0EEEEJONS_9allocatorIZN5Enemy16initDecisionTreeEvE3$_0EEEEC2B8ue170006IJLm0EEJS7_EJEJEJS6_EEENS1_IJXspT_EEEENS_13__tuple_typesIJDpT0_EEENS1_IJXspT1_EEEENSB_IJDpT2_EEEDpOT3_', symObjAddr: 0x2D24, symBinAddr: 0x1000113CC, symSize: 0x34 }
  - { offsetInCU: 0x1393E, offset: 0x3DB59, size: 0x8, addend: 0x0, symName: '__ZNSt3__112__tuple_leafILm0EONS_9allocatorIZN5Enemy16initDecisionTreeEvE3$_0EELb0EEC2B8ue170006IS4_vEEOT_', symObjAddr: 0x2D58, symBinAddr: 0x100011400, symSize: 0x20 }
  - { offsetInCU: 0x13981, offset: 0x3DB9C, size: 0x8, addend: 0x0, symName: '__ZNSt3__117__compressed_pairIZN5Enemy16initDecisionTreeEvE3$_0NS_9allocatorIS2_EEEC2B8ue170006IJOS2_EJOS4_EEENS_21piecewise_construct_tENS_5tupleIJDpT_EEENSA_IJDpT0_EEE', symObjAddr: 0x2D78, symBinAddr: 0x100011420, symSize: 0x54 }
  - { offsetInCU: 0x139EB, offset: 0x3DC06, size: 0x8, addend: 0x0, symName: '__ZNSt3__122__compressed_pair_elemIZN5Enemy16initDecisionTreeEvE3$_0Li0ELb0EEC2B8ue170006IJOS2_EJLm0EEEENS_21piecewise_construct_tENS_5tupleIJDpT_EEENS_15__tuple_indicesIJXspT0_EEEE', symObjAddr: 0x2DCC, symBinAddr: 0x100011474, symSize: 0x44 }
  - { offsetInCU: 0x13A50, offset: 0x3DC6B, size: 0x8, addend: 0x0, symName: '__ZNSt3__122__compressed_pair_elemINS_9allocatorIZN5Enemy16initDecisionTreeEvE3$_0EELi1ELb1EEC2B8ue170006IJOS4_EJLm0EEEENS_21piecewise_construct_tENS_5tupleIJDpT_EEENS_15__tuple_indicesIJXspT0_EEEE', symObjAddr: 0x2E10, symBinAddr: 0x1000114B8, symSize: 0x38 }
  - { offsetInCU: 0x13AB5, offset: 0x3DCD0, size: 0x8, addend: 0x0, symName: '__ZNSt3__112__tuple_leafILm0EOZN5Enemy16initDecisionTreeEvE3$_0Lb0EE3getB8ue170006Ev', symObjAddr: 0x2E6C, symBinAddr: 0x100011514, symSize: 0x18 }
  - { offsetInCU: 0x13ADB, offset: 0x3DCF6, size: 0x8, addend: 0x0, symName: '__ZNSt3__112__tuple_leafILm0EONS_9allocatorIZN5Enemy16initDecisionTreeEvE3$_0EELb0EE3getB8ue170006Ev', symObjAddr: 0x2EA8, symBinAddr: 0x100011550, symSize: 0x18 }
  - { offsetInCU: 0x13B01, offset: 0x3DD1C, size: 0x8, addend: 0x0, symName: '__ZNSt3__110__function6__funcIZN5Enemy16initDecisionTreeEvE3$_0NS_9allocatorIS3_EEFvvEED2Ev', symObjAddr: 0x2EC0, symBinAddr: 0x100011568, symSize: 0x2C }
  - { offsetInCU: 0x13B2E, offset: 0x3DD49, size: 0x8, addend: 0x0, symName: '__ZNKSt3__110__function12__alloc_funcIZN5Enemy16initDecisionTreeEvE3$_0NS_9allocatorIS3_EEFvvEE15__get_allocatorB8ue170006Ev', symObjAddr: 0x2EEC, symBinAddr: 0x100011594, symSize: 0x24 }
  - { offsetInCU: 0x13B54, offset: 0x3DD6F, size: 0x8, addend: 0x0, symName: '__ZNSt3__19allocatorINS_10__function6__funcIZN5Enemy16initDecisionTreeEvE3$_0NS0_IS4_EEFvvEEEE8allocateB8ue170006Em', symObjAddr: 0x2F10, symBinAddr: 0x1000115B8, symSize: 0x58 }
  - { offsetInCU: 0x13B97, offset: 0x3DDB2, size: 0x8, addend: 0x0, symName: '__ZNSt3__122__allocator_destructorINS_9allocatorINS_10__function6__funcIZN5Enemy16initDecisionTreeEvE3$_0NS1_IS5_EEFvvEEEEEEC1B8ue170006ERS9_m', symObjAddr: 0x2F68, symBinAddr: 0x100011610, symSize: 0x3C }
  - { offsetInCU: 0x13C69, offset: 0x3DE84, size: 0x8, addend: 0x0, symName: '__ZNSt3__110unique_ptrINS_10__function6__funcIZN5Enemy16initDecisionTreeEvE3$_0NS_9allocatorIS4_EEFvvEEENS_22__allocator_destructorINS5_IS8_EEEEEC1B8ue170006ILb1EvEEPS8_NS_16__dependent_typeINS_27__unique_ptr_deleter_sfinaeISB_EEXT_EE20__good_rval_ref_typeE', symObjAddr: 0x2FA4, symBinAddr: 0x10001164C, symSize: 0x3C }
  - { offsetInCU: 0x13CBA, offset: 0x3DED5, size: 0x8, addend: 0x0, symName: '__ZNKSt3__110unique_ptrINS_10__function6__funcIZN5Enemy16initDecisionTreeEvE3$_0NS_9allocatorIS4_EEFvvEEENS_22__allocator_destructorINS5_IS8_EEEEE3getB8ue170006Ev', symObjAddr: 0x2FE0, symBinAddr: 0x100011688, symSize: 0x28 }
  - { offsetInCU: 0x13CE0, offset: 0x3DEFB, size: 0x8, addend: 0x0, symName: '__ZNKSt3__110__function12__alloc_funcIZN5Enemy16initDecisionTreeEvE3$_0NS_9allocatorIS3_EEFvvEE8__targetB8ue170006Ev', symObjAddr: 0x3008, symBinAddr: 0x1000116B0, symSize: 0x24 }
  - { offsetInCU: 0x13D06, offset: 0x3DF21, size: 0x8, addend: 0x0, symName: '__ZNSt3__110__function6__funcIZN5Enemy16initDecisionTreeEvE3$_0NS_9allocatorIS3_EEFvvEEC1B8ue170006ERKS3_OS5_', symObjAddr: 0x302C, symBinAddr: 0x1000116D4, symSize: 0x3C }
  - { offsetInCU: 0x13D4E, offset: 0x3DF69, size: 0x8, addend: 0x0, symName: '__ZNSt3__110unique_ptrINS_10__function6__funcIZN5Enemy16initDecisionTreeEvE3$_0NS_9allocatorIS4_EEFvvEEENS_22__allocator_destructorINS5_IS8_EEEEE7releaseB8ue170006Ev', symObjAddr: 0x3068, symBinAddr: 0x100011710, symSize: 0x44 }
  - { offsetInCU: 0x13D83, offset: 0x3DF9E, size: 0x8, addend: 0x0, symName: '__ZNSt3__110unique_ptrINS_10__function6__funcIZN5Enemy16initDecisionTreeEvE3$_0NS_9allocatorIS4_EEFvvEEENS_22__allocator_destructorINS5_IS8_EEEEED1B8ue170006Ev', symObjAddr: 0x30AC, symBinAddr: 0x100011754, symSize: 0x2C }
  - { offsetInCU: 0x13DAD, offset: 0x3DFC8, size: 0x8, addend: 0x0, symName: '__ZNKSt3__117__compressed_pairIZN5Enemy16initDecisionTreeEvE3$_0NS_9allocatorIS2_EEE6secondB8ue170006Ev', symObjAddr: 0x30D8, symBinAddr: 0x100011780, symSize: 0x24 }
  - { offsetInCU: 0x13DD3, offset: 0x3DFEE, size: 0x8, addend: 0x0, symName: '__ZNKSt3__122__compressed_pair_elemINS_9allocatorIZN5Enemy16initDecisionTreeEvE3$_0EELi1ELb1EE5__getB8ue170006Ev', symObjAddr: 0x30FC, symBinAddr: 0x1000117A4, symSize: 0x14 }
  - { offsetInCU: 0x13E03, offset: 0x3E01E, size: 0x8, addend: 0x0, symName: '__ZNSt3__116allocator_traitsINS_9allocatorINS_10__function6__funcIZN5Enemy16initDecisionTreeEvE3$_0NS1_IS5_EEFvvEEEEEE8max_sizeB8ue170006IS9_vEEmRKS9_', symObjAddr: 0x3110, symBinAddr: 0x1000117B8, symSize: 0x24 }
  - { offsetInCU: 0x13E31, offset: 0x3E04C, size: 0x8, addend: 0x0, symName: '__ZNKSt3__19allocatorINS_10__function6__funcIZN5Enemy16initDecisionTreeEvE3$_0NS0_IS4_EEFvvEEEE8max_sizeB8ue170006Ev', symObjAddr: 0x31C8, symBinAddr: 0x1000117DC, symSize: 0x14 }
  - { offsetInCU: 0x13E57, offset: 0x3E072, size: 0x8, addend: 0x0, symName: '__ZNSt3__122__allocator_destructorINS_9allocatorINS_10__function6__funcIZN5Enemy16initDecisionTreeEvE3$_0NS1_IS5_EEFvvEEEEEEC2B8ue170006ERS9_m', symObjAddr: 0x324C, symBinAddr: 0x1000117F0, symSize: 0x2C }
  - { offsetInCU: 0x13E9D, offset: 0x3E0B8, size: 0x8, addend: 0x0, symName: '__ZNSt3__110unique_ptrINS_10__function6__funcIZN5Enemy16initDecisionTreeEvE3$_0NS_9allocatorIS4_EEFvvEEENS_22__allocator_destructorINS5_IS8_EEEEEC2B8ue170006ILb1EvEEPS8_NS_16__dependent_typeINS_27__unique_ptr_deleter_sfinaeISB_EEXT_EE20__good_rval_ref_typeE', symObjAddr: 0x3278, symBinAddr: 0x10001181C, symSize: 0x48 }
  - { offsetInCU: 0x13EEE, offset: 0x3E109, size: 0x8, addend: 0x0, symName: '__ZNSt3__117__compressed_pairIPNS_10__function6__funcIZN5Enemy16initDecisionTreeEvE3$_0NS_9allocatorIS4_EEFvvEEENS_22__allocator_destructorINS5_IS8_EEEEEC1B8ue170006IRS9_SC_EEOT_OT0_', symObjAddr: 0x32C0, symBinAddr: 0x100011864, symSize: 0x3C }
  - { offsetInCU: 0x13F46, offset: 0x3E161, size: 0x8, addend: 0x0, symName: '__ZNSt3__117__compressed_pairIPNS_10__function6__funcIZN5Enemy16initDecisionTreeEvE3$_0NS_9allocatorIS4_EEFvvEEENS_22__allocator_destructorINS5_IS8_EEEEEC2B8ue170006IRS9_SC_EEOT_OT0_', symObjAddr: 0x32FC, symBinAddr: 0x1000118A0, symSize: 0x48 }
  - { offsetInCU: 0x13F9E, offset: 0x3E1B9, size: 0x8, addend: 0x0, symName: '__ZNSt3__122__compressed_pair_elemIPNS_10__function6__funcIZN5Enemy16initDecisionTreeEvE3$_0NS_9allocatorIS4_EEFvvEEELi0ELb0EEC2B8ue170006IRS9_vEEOT_', symObjAddr: 0x3344, symBinAddr: 0x1000118E8, symSize: 0x24 }
  - { offsetInCU: 0x13FE0, offset: 0x3E1FB, size: 0x8, addend: 0x0, symName: '__ZNSt3__122__compressed_pair_elemINS_22__allocator_destructorINS_9allocatorINS_10__function6__funcIZN5Enemy16initDecisionTreeEvE3$_0NS2_IS6_EEFvvEEEEEEELi1ELb0EEC2B8ue170006ISB_vEEOT_', symObjAddr: 0x3368, symBinAddr: 0x10001190C, symSize: 0x24 }
  - { offsetInCU: 0x14022, offset: 0x3E23D, size: 0x8, addend: 0x0, symName: '__ZNKSt3__117__compressed_pairIPNS_10__function6__funcIZN5Enemy16initDecisionTreeEvE3$_0NS_9allocatorIS4_EEFvvEEENS_22__allocator_destructorINS5_IS8_EEEEE5firstB8ue170006Ev', symObjAddr: 0x338C, symBinAddr: 0x100011930, symSize: 0x24 }
  - { offsetInCU: 0x14048, offset: 0x3E263, size: 0x8, addend: 0x0, symName: '__ZNKSt3__122__compressed_pair_elemIPNS_10__function6__funcIZN5Enemy16initDecisionTreeEvE3$_0NS_9allocatorIS4_EEFvvEEELi0ELb0EE5__getB8ue170006Ev', symObjAddr: 0x33B0, symBinAddr: 0x100011954, symSize: 0x14 }
  - { offsetInCU: 0x1406E, offset: 0x3E289, size: 0x8, addend: 0x0, symName: '__ZNKSt3__117__compressed_pairIZN5Enemy16initDecisionTreeEvE3$_0NS_9allocatorIS2_EEE5firstB8ue170006Ev', symObjAddr: 0x33C4, symBinAddr: 0x100011968, symSize: 0x24 }
  - { offsetInCU: 0x14094, offset: 0x3E2AF, size: 0x8, addend: 0x0, symName: '__ZNKSt3__122__compressed_pair_elemIZN5Enemy16initDecisionTreeEvE3$_0Li0ELb0EE5__getB8ue170006Ev', symObjAddr: 0x33E8, symBinAddr: 0x10001198C, symSize: 0x14 }
  - { offsetInCU: 0x140BA, offset: 0x3E2D5, size: 0x8, addend: 0x0, symName: '__ZNSt3__110__function6__funcIZN5Enemy16initDecisionTreeEvE3$_0NS_9allocatorIS3_EEFvvEEC2B8ue170006ERKS3_OS5_', symObjAddr: 0x33FC, symBinAddr: 0x1000119A0, symSize: 0x88 }
  - { offsetInCU: 0x14102, offset: 0x3E31D, size: 0x8, addend: 0x0, symName: '__ZNSt3__110__function12__alloc_funcIZN5Enemy16initDecisionTreeEvE3$_0NS_9allocatorIS3_EEFvvEEC1B8ue170006ERKS3_OS5_', symObjAddr: 0x3484, symBinAddr: 0x100011A28, symSize: 0x3C }
  - { offsetInCU: 0x14148, offset: 0x3E363, size: 0x8, addend: 0x0, symName: '__ZNSt3__110__function12__alloc_funcIZN5Enemy16initDecisionTreeEvE3$_0NS_9allocatorIS3_EEFvvEEC2B8ue170006ERKS3_OS5_', symObjAddr: 0x34C0, symBinAddr: 0x100011A64, symSize: 0x5C }
  - { offsetInCU: 0x1418E, offset: 0x3E3A9, size: 0x8, addend: 0x0, symName: '__ZNSt3__117__compressed_pairIZN5Enemy16initDecisionTreeEvE3$_0NS_9allocatorIS2_EEEC1B8ue170006IJRKS2_EJOS4_EEENS_21piecewise_construct_tENS_5tupleIJDpT_EEENSB_IJDpT0_EEE', symObjAddr: 0x3548, symBinAddr: 0x100011AEC, symSize: 0x3C }
  - { offsetInCU: 0x141F8, offset: 0x3E413, size: 0x8, addend: 0x0, symName: '__ZNSt3__15tupleIJRKZN5Enemy16initDecisionTreeEvE3$_0EEC1B8ue170006INS_4_AndELi0EEES4_', symObjAddr: 0x3584, symBinAddr: 0x100011B28, symSize: 0x34 }
  - { offsetInCU: 0x14241, offset: 0x3E45C, size: 0x8, addend: 0x0, symName: '__ZNSt3__15tupleIJRKZN5Enemy16initDecisionTreeEvE3$_0EEC2B8ue170006INS_4_AndELi0EEES4_', symObjAddr: 0x35B8, symBinAddr: 0x100011B5C, symSize: 0x34 }
  - { offsetInCU: 0x1428A, offset: 0x3E4A5, size: 0x8, addend: 0x0, symName: '__ZNSt3__112__tuple_implINS_15__tuple_indicesIJLm0EEEEJRKZN5Enemy16initDecisionTreeEvE3$_0EEC1B8ue170006IJLm0EEJS6_EJEJEJS6_EEENS1_IJXspT_EEEENS_13__tuple_typesIJDpT0_EEENS1_IJXspT1_EEEENSA_IJDpT2_EEEDpOT3_', symObjAddr: 0x35EC, symBinAddr: 0x100011B90, symSize: 0x34 }
  - { offsetInCU: 0x1431B, offset: 0x3E536, size: 0x8, addend: 0x0, symName: '__ZNSt3__112__tuple_implINS_15__tuple_indicesIJLm0EEEEJRKZN5Enemy16initDecisionTreeEvE3$_0EEC2B8ue170006IJLm0EEJS6_EJEJEJS6_EEENS1_IJXspT_EEEENS_13__tuple_typesIJDpT0_EEENS1_IJXspT1_EEEENSA_IJDpT2_EEEDpOT3_', symObjAddr: 0x3620, symBinAddr: 0x100011BC4, symSize: 0x34 }
  - { offsetInCU: 0x143AC, offset: 0x3E5C7, size: 0x8, addend: 0x0, symName: '__ZNSt3__112__tuple_leafILm0ERKZN5Enemy16initDecisionTreeEvE3$_0Lb0EEC2B8ue170006IS4_vEEOT_', symObjAddr: 0x3654, symBinAddr: 0x100011BF8, symSize: 0x20 }
  - { offsetInCU: 0x143EF, offset: 0x3E60A, size: 0x8, addend: 0x0, symName: '__ZNSt3__117__compressed_pairIZN5Enemy16initDecisionTreeEvE3$_0NS_9allocatorIS2_EEEC2B8ue170006IJRKS2_EJOS4_EEENS_21piecewise_construct_tENS_5tupleIJDpT_EEENSB_IJDpT0_EEE', symObjAddr: 0x3674, symBinAddr: 0x100011C18, symSize: 0x54 }
  - { offsetInCU: 0x14459, offset: 0x3E674, size: 0x8, addend: 0x0, symName: '__ZNSt3__122__compressed_pair_elemIZN5Enemy16initDecisionTreeEvE3$_0Li0ELb0EEC2B8ue170006IJRKS2_EJLm0EEEENS_21piecewise_construct_tENS_5tupleIJDpT_EEENS_15__tuple_indicesIJXspT0_EEEE', symObjAddr: 0x36C8, symBinAddr: 0x100011C6C, symSize: 0x44 }
  - { offsetInCU: 0x144BE, offset: 0x3E6D9, size: 0x8, addend: 0x0, symName: '__ZNSt3__112__tuple_leafILm0ERKZN5Enemy16initDecisionTreeEvE3$_0Lb0EE3getB8ue170006Ev', symObjAddr: 0x3730, symBinAddr: 0x100011CD4, symSize: 0x18 }
  - { offsetInCU: 0x144E4, offset: 0x3E6FF, size: 0x8, addend: 0x0, symName: '__ZNSt3__117__compressed_pairIPNS_10__function6__funcIZN5Enemy16initDecisionTreeEvE3$_0NS_9allocatorIS4_EEFvvEEENS_22__allocator_destructorINS5_IS8_EEEEE5firstB8ue170006Ev', symObjAddr: 0x3748, symBinAddr: 0x100011CEC, symSize: 0x24 }
  - { offsetInCU: 0x1450A, offset: 0x3E725, size: 0x8, addend: 0x0, symName: '__ZNSt3__122__compressed_pair_elemIPNS_10__function6__funcIZN5Enemy16initDecisionTreeEvE3$_0NS_9allocatorIS4_EEFvvEEELi0ELb0EE5__getB8ue170006Ev', symObjAddr: 0x376C, symBinAddr: 0x100011D10, symSize: 0x14 }
  - { offsetInCU: 0x14530, offset: 0x3E74B, size: 0x8, addend: 0x0, symName: '__ZNSt3__110unique_ptrINS_10__function6__funcIZN5Enemy16initDecisionTreeEvE3$_0NS_9allocatorIS4_EEFvvEEENS_22__allocator_destructorINS5_IS8_EEEEED2B8ue170006Ev', symObjAddr: 0x3780, symBinAddr: 0x100011D24, symSize: 0x30 }
  - { offsetInCU: 0x1455A, offset: 0x3E775, size: 0x8, addend: 0x0, symName: '__ZNSt3__110unique_ptrINS_10__function6__funcIZN5Enemy16initDecisionTreeEvE3$_0NS_9allocatorIS4_EEFvvEEENS_22__allocator_destructorINS5_IS8_EEEEE5resetB8ue170006EPS8_', symObjAddr: 0x37B0, symBinAddr: 0x100011D54, symSize: 0x78 }
  - { offsetInCU: 0x1459E, offset: 0x3E7B9, size: 0x8, addend: 0x0, symName: '__ZNSt3__117__compressed_pairIPNS_10__function6__funcIZN5Enemy16initDecisionTreeEvE3$_0NS_9allocatorIS4_EEFvvEEENS_22__allocator_destructorINS5_IS8_EEEEE6secondB8ue170006Ev', symObjAddr: 0x3828, symBinAddr: 0x100011DCC, symSize: 0x28 }
  - { offsetInCU: 0x145C4, offset: 0x3E7DF, size: 0x8, addend: 0x0, symName: '__ZNSt3__122__allocator_destructorINS_9allocatorINS_10__function6__funcIZN5Enemy16initDecisionTreeEvE3$_0NS1_IS5_EEFvvEEEEEEclB8ue170006EPS8_', symObjAddr: 0x3850, symBinAddr: 0x100011DF4, symSize: 0x34 }
  - { offsetInCU: 0x145F8, offset: 0x3E813, size: 0x8, addend: 0x0, symName: '__ZNSt3__122__compressed_pair_elemINS_22__allocator_destructorINS_9allocatorINS_10__function6__funcIZN5Enemy16initDecisionTreeEvE3$_0NS2_IS6_EEFvvEEEEEEELi1ELb0EE5__getB8ue170006Ev', symObjAddr: 0x3884, symBinAddr: 0x100011E28, symSize: 0x14 }
  - { offsetInCU: 0x1461E, offset: 0x3E839, size: 0x8, addend: 0x0, symName: '__ZNSt3__116allocator_traitsINS_9allocatorINS_10__function6__funcIZN5Enemy16initDecisionTreeEvE3$_0NS1_IS5_EEFvvEEEEEE10deallocateB8ue170006ERS9_PS8_m', symObjAddr: 0x3898, symBinAddr: 0x100011E3C, symSize: 0x34 }
  - { offsetInCU: 0x14660, offset: 0x3E87B, size: 0x8, addend: 0x0, symName: '__ZNSt3__19allocatorINS_10__function6__funcIZN5Enemy16initDecisionTreeEvE3$_0NS0_IS4_EEFvvEEEE10deallocateB8ue170006EPS7_m', symObjAddr: 0x38CC, symBinAddr: 0x100011E70, symSize: 0x40 }
  - { offsetInCU: 0x146A2, offset: 0x3E8BD, size: 0x8, addend: 0x0, symName: '__ZNSt3__110__function6__funcIZN5Enemy16initDecisionTreeEvE3$_0NS_9allocatorIS3_EEFvvEEC1B8ue170006ERKS3_RKS5_', symObjAddr: 0x3A14, symBinAddr: 0x100011EB0, symSize: 0x3C }
  - { offsetInCU: 0x146EA, offset: 0x3E905, size: 0x8, addend: 0x0, symName: '__ZNSt3__110__function6__funcIZN5Enemy16initDecisionTreeEvE3$_0NS_9allocatorIS3_EEFvvEEC2B8ue170006ERKS3_RKS5_', symObjAddr: 0x3A50, symBinAddr: 0x100011EEC, symSize: 0x88 }
  - { offsetInCU: 0x14732, offset: 0x3E94D, size: 0x8, addend: 0x0, symName: '__ZNSt3__110__function12__alloc_funcIZN5Enemy16initDecisionTreeEvE3$_0NS_9allocatorIS3_EEFvvEEC1B8ue170006ERKS3_RKS5_', symObjAddr: 0x3AD8, symBinAddr: 0x100011F74, symSize: 0x3C }
  - { offsetInCU: 0x14778, offset: 0x3E993, size: 0x8, addend: 0x0, symName: '__ZNSt3__110__function12__alloc_funcIZN5Enemy16initDecisionTreeEvE3$_0NS_9allocatorIS3_EEFvvEEC2B8ue170006ERKS3_RKS5_', symObjAddr: 0x3B14, symBinAddr: 0x100011FB0, symSize: 0x5C }
  - { offsetInCU: 0x147BE, offset: 0x3E9D9, size: 0x8, addend: 0x0, symName: '__ZNSt3__117__compressed_pairIZN5Enemy16initDecisionTreeEvE3$_0NS_9allocatorIS2_EEEC1B8ue170006IJRKS2_EJRKS4_EEENS_21piecewise_construct_tENS_5tupleIJDpT_EEENSC_IJDpT0_EEE', symObjAddr: 0x3B9C, symBinAddr: 0x100012038, symSize: 0x3C }
  - { offsetInCU: 0x14828, offset: 0x3EA43, size: 0x8, addend: 0x0, symName: '__ZNSt3__15tupleIJRKNS_9allocatorIZN5Enemy16initDecisionTreeEvE3$_0EEEEC1B8ue170006INS_4_AndELi0EEES6_', symObjAddr: 0x3BD8, symBinAddr: 0x100012074, symSize: 0x34 }
  - { offsetInCU: 0x14871, offset: 0x3EA8C, size: 0x8, addend: 0x0, symName: '__ZNSt3__15tupleIJRKNS_9allocatorIZN5Enemy16initDecisionTreeEvE3$_0EEEEC2B8ue170006INS_4_AndELi0EEES6_', symObjAddr: 0x3C0C, symBinAddr: 0x1000120A8, symSize: 0x34 }
  - { offsetInCU: 0x148BA, offset: 0x3EAD5, size: 0x8, addend: 0x0, symName: '__ZNSt3__112__tuple_implINS_15__tuple_indicesIJLm0EEEEJRKNS_9allocatorIZN5Enemy16initDecisionTreeEvE3$_0EEEEC1B8ue170006IJLm0EEJS8_EJEJEJS8_EEENS1_IJXspT_EEEENS_13__tuple_typesIJDpT0_EEENS1_IJXspT1_EEEENSC_IJDpT2_EEEDpOT3_', symObjAddr: 0x3C40, symBinAddr: 0x1000120DC, symSize: 0x34 }
  - { offsetInCU: 0x1494B, offset: 0x3EB66, size: 0x8, addend: 0x0, symName: '__ZNSt3__112__tuple_implINS_15__tuple_indicesIJLm0EEEEJRKNS_9allocatorIZN5Enemy16initDecisionTreeEvE3$_0EEEEC2B8ue170006IJLm0EEJS8_EJEJEJS8_EEENS1_IJXspT_EEEENS_13__tuple_typesIJDpT0_EEENS1_IJXspT1_EEEENSC_IJDpT2_EEEDpOT3_', symObjAddr: 0x3C74, symBinAddr: 0x100012110, symSize: 0x34 }
  - { offsetInCU: 0x149DC, offset: 0x3EBF7, size: 0x8, addend: 0x0, symName: '__ZNSt3__112__tuple_leafILm0ERKNS_9allocatorIZN5Enemy16initDecisionTreeEvE3$_0EELb0EEC2B8ue170006IS6_vEEOT_', symObjAddr: 0x3CA8, symBinAddr: 0x100012144, symSize: 0x20 }
  - { offsetInCU: 0x14A1F, offset: 0x3EC3A, size: 0x8, addend: 0x0, symName: '__ZNSt3__117__compressed_pairIZN5Enemy16initDecisionTreeEvE3$_0NS_9allocatorIS2_EEEC2B8ue170006IJRKS2_EJRKS4_EEENS_21piecewise_construct_tENS_5tupleIJDpT_EEENSC_IJDpT0_EEE', symObjAddr: 0x3CC8, symBinAddr: 0x100012164, symSize: 0x54 }
  - { offsetInCU: 0x14A89, offset: 0x3ECA4, size: 0x8, addend: 0x0, symName: '__ZNSt3__122__compressed_pair_elemINS_9allocatorIZN5Enemy16initDecisionTreeEvE3$_0EELi1ELb1EEC2B8ue170006IJRKS4_EJLm0EEEENS_21piecewise_construct_tENS_5tupleIJDpT_EEENS_15__tuple_indicesIJXspT0_EEEE', symObjAddr: 0x3D1C, symBinAddr: 0x1000121B8, symSize: 0x38 }
  - { offsetInCU: 0x14AEE, offset: 0x3ED09, size: 0x8, addend: 0x0, symName: '__ZNSt3__112__tuple_leafILm0ERKNS_9allocatorIZN5Enemy16initDecisionTreeEvE3$_0EELb0EE3getB8ue170006Ev', symObjAddr: 0x3D78, symBinAddr: 0x100012214, symSize: 0x18 }
  - { offsetInCU: 0x14B14, offset: 0x3ED2F, size: 0x8, addend: 0x0, symName: '__ZNSt3__110__function12__alloc_funcIZN5Enemy16initDecisionTreeEvE3$_0NS_9allocatorIS3_EEFvvEE7destroyB8ue170006Ev', symObjAddr: 0x3D90, symBinAddr: 0x10001222C, symSize: 0x10 }
  - { offsetInCU: 0x14B3A, offset: 0x3ED55, size: 0x8, addend: 0x0, symName: '__ZNSt3__110__function12__alloc_funcIZN5Enemy16initDecisionTreeEvE3$_0NS_9allocatorIS3_EEFvvEEclB8ue170006Ev', symObjAddr: 0x3DA0, symBinAddr: 0x10001223C, symSize: 0x28 }
  - { offsetInCU: 0x14B60, offset: 0x3ED7B, size: 0x8, addend: 0x0, symName: '__ZNSt3__128__invoke_void_return_wrapperIvLb1EE6__callB8ue170006IJRZN5Enemy16initDecisionTreeEvE3$_0EEEvDpOT_', symObjAddr: 0x3DC8, symBinAddr: 0x100012264, symSize: 0x24 }
  - { offsetInCU: 0x14B8F, offset: 0x3EDAA, size: 0x8, addend: 0x0, symName: '__ZNSt3__117__compressed_pairIZN5Enemy16initDecisionTreeEvE3$_0NS_9allocatorIS2_EEE5firstB8ue170006Ev', symObjAddr: 0x3DEC, symBinAddr: 0x100012288, symSize: 0x24 }
  - { offsetInCU: 0x14BBA, offset: 0x3EDD5, size: 0x8, addend: 0x0, symName: '__ZZN5Enemy16initDecisionTreeEvENK3$_0clEv', symObjAddr: 0x3E34, symBinAddr: 0x1000122D0, symSize: 0x28 }
  - { offsetInCU: 0x14BE4, offset: 0x3EDFF, size: 0x8, addend: 0x0, symName: '__ZNSt3__122__compressed_pair_elemIZN5Enemy16initDecisionTreeEvE3$_0Li0ELb0EE5__getB8ue170006Ev', symObjAddr: 0x3E5C, symBinAddr: 0x1000122F8, symSize: 0x14 }
  - { offsetInCU: 0x14C40, offset: 0x3EE5B, size: 0x8, addend: 0x0, symName: __ZNKSt9type_infoeqB8ue170006ERKS_, symObjAddr: 0x3E70, symBinAddr: 0x10001230C, symSize: 0xDC }
  - { offsetInCU: 0x14CDE, offset: 0x3EEF9, size: 0x8, addend: 0x0, symName: __ZNSt27__type_info_implementations30__non_unique_arm_rtti_bit_impl21__is_type_name_uniqueB8ue170006Em, symObjAddr: 0x3F4C, symBinAddr: 0x1000123E8, symSize: 0x20 }
  - { offsetInCU: 0x14D02, offset: 0x3EF1D, size: 0x8, addend: 0x0, symName: '__ZNSt3__18functionIFvvEEC2IZN5Enemy16initDecisionTreeEvE3$_1vEET_', symObjAddr: 0x4054, symBinAddr: 0x100012408, symSize: 0x38 }
  - { offsetInCU: 0x14D47, offset: 0x3EF62, size: 0x8, addend: 0x0, symName: '__ZNSt3__110__function12__value_funcIFvvEEC1B8ue170006IZN5Enemy16initDecisionTreeEvE3$_1vEEOT_', symObjAddr: 0x408C, symBinAddr: 0x100012440, symSize: 0x50 }
  - { offsetInCU: 0x14D8A, offset: 0x3EFA5, size: 0x8, addend: 0x0, symName: '__ZNSt3__19allocatorIZN5Enemy16initDecisionTreeEvE3$_1EC1B8ue170006Ev', symObjAddr: 0x40DC, symBinAddr: 0x100012490, symSize: 0x2C }
  - { offsetInCU: 0x14DB4, offset: 0x3EFCF, size: 0x8, addend: 0x0, symName: '__ZNSt3__110__function12__value_funcIFvvEEC1B8ue170006IZN5Enemy16initDecisionTreeEvE3$_1NS_9allocatorIS6_EEEEOT_RKT0_', symObjAddr: 0x4108, symBinAddr: 0x1000124BC, symSize: 0x3C }
  - { offsetInCU: 0x14E0E, offset: 0x3F029, size: 0x8, addend: 0x0, symName: '__ZNSt3__19allocatorIZN5Enemy16initDecisionTreeEvE3$_1EC2B8ue170006Ev', symObjAddr: 0x4144, symBinAddr: 0x1000124F8, symSize: 0x2C }
  - { offsetInCU: 0x14E38, offset: 0x3F053, size: 0x8, addend: 0x0, symName: '__ZNSt3__116__non_trivial_ifILb1ENS_9allocatorIZN5Enemy16initDecisionTreeEvE3$_1EEEC2B8ue170006Ev', symObjAddr: 0x4170, symBinAddr: 0x100012524, symSize: 0x14 }
  - { offsetInCU: 0x14E62, offset: 0x3F07D, size: 0x8, addend: 0x0, symName: '__ZNSt3__110__function12__value_funcIFvvEEC2B8ue170006IZN5Enemy16initDecisionTreeEvE3$_1NS_9allocatorIS6_EEEEOT_RKT0_', symObjAddr: 0x4184, symBinAddr: 0x100012538, symSize: 0x94 }
  - { offsetInCU: 0x14F08, offset: 0x3F123, size: 0x8, addend: 0x0, symName: '__ZNSt3__19allocatorINS_10__function6__funcIZN5Enemy16initDecisionTreeEvE3$_1NS0_IS4_EEFvvEEEEC1B8ue170006IS4_EERKNS0_IT_EE', symObjAddr: 0x4230, symBinAddr: 0x1000125E4, symSize: 0x34 }
  - { offsetInCU: 0x14F4B, offset: 0x3F166, size: 0x8, addend: 0x0, symName: '__ZNSt3__19allocatorIZN5Enemy16initDecisionTreeEvE3$_1EC1B8ue170006INS_10__function6__funcIS2_S3_FvvEEEEERKNS0_IT_EE', symObjAddr: 0x4264, symBinAddr: 0x100012618, symSize: 0x34 }
  - { offsetInCU: 0x14F89, offset: 0x3F1A4, size: 0x8, addend: 0x0, symName: '__ZNSt3__110__function6__funcIZN5Enemy16initDecisionTreeEvE3$_1NS_9allocatorIS3_EEFvvEEC1B8ue170006EOS3_OS5_', symObjAddr: 0x4298, symBinAddr: 0x10001264C, symSize: 0x3C }
  - { offsetInCU: 0x14FD1, offset: 0x3F1EC, size: 0x8, addend: 0x0, symName: '__ZNSt3__19allocatorINS_10__function6__funcIZN5Enemy16initDecisionTreeEvE3$_1NS0_IS4_EEFvvEEEEC2B8ue170006IS4_EERKNS0_IT_EE', symObjAddr: 0x42D4, symBinAddr: 0x100012688, symSize: 0x30 }
  - { offsetInCU: 0x1500F, offset: 0x3F22A, size: 0x8, addend: 0x0, symName: '__ZNSt3__116__non_trivial_ifILb1ENS_9allocatorINS_10__function6__funcIZN5Enemy16initDecisionTreeEvE3$_1NS1_IS5_EEFvvEEEEEEC2B8ue170006Ev', symObjAddr: 0x4304, symBinAddr: 0x1000126B8, symSize: 0x14 }
  - { offsetInCU: 0x15039, offset: 0x3F254, size: 0x8, addend: 0x0, symName: '__ZNSt3__19allocatorIZN5Enemy16initDecisionTreeEvE3$_1EC2B8ue170006INS_10__function6__funcIS2_S3_FvvEEEEERKNS0_IT_EE', symObjAddr: 0x4318, symBinAddr: 0x1000126CC, symSize: 0x30 }
  - { offsetInCU: 0x15077, offset: 0x3F292, size: 0x8, addend: 0x0, symName: '__ZNSt3__110__function6__funcIZN5Enemy16initDecisionTreeEvE3$_1NS_9allocatorIS3_EEFvvEEC2B8ue170006EOS3_OS5_', symObjAddr: 0x4348, symBinAddr: 0x1000126FC, symSize: 0x88 }
  - { offsetInCU: 0x150BF, offset: 0x3F2DA, size: 0x8, addend: 0x0, symName: '__ZNSt3__110__function12__alloc_funcIZN5Enemy16initDecisionTreeEvE3$_1NS_9allocatorIS3_EEFvvEEC1B8ue170006EOS3_OS5_', symObjAddr: 0x43D0, symBinAddr: 0x100012784, symSize: 0x3C }
  - { offsetInCU: 0x15105, offset: 0x3F320, size: 0x8, addend: 0x0, symName: '__ZNSt3__110__function6__funcIZN5Enemy16initDecisionTreeEvE3$_1NS_9allocatorIS3_EEFvvEED1Ev', symObjAddr: 0x440C, symBinAddr: 0x1000127C0, symSize: 0x2C }
  - { offsetInCU: 0x15132, offset: 0x3F34D, size: 0x8, addend: 0x0, symName: '__ZNSt3__110__function6__funcIZN5Enemy16initDecisionTreeEvE3$_1NS_9allocatorIS3_EEFvvEED0Ev', symObjAddr: 0x4438, symBinAddr: 0x1000127EC, symSize: 0x30 }
  - { offsetInCU: 0x1515F, offset: 0x3F37A, size: 0x8, addend: 0x0, symName: '__ZNKSt3__110__function6__funcIZN5Enemy16initDecisionTreeEvE3$_1NS_9allocatorIS3_EEFvvEE7__cloneEv', symObjAddr: 0x4468, symBinAddr: 0x10001281C, symSize: 0xFC }
  - { offsetInCU: 0x151B1, offset: 0x3F3CC, size: 0x8, addend: 0x0, symName: '__ZNKSt3__110__function6__funcIZN5Enemy16initDecisionTreeEvE3$_1NS_9allocatorIS3_EEFvvEE7__cloneEPNS0_6__baseIS6_EE', symObjAddr: 0x4564, symBinAddr: 0x100012918, symSize: 0x58 }
  - { offsetInCU: 0x151E8, offset: 0x3F403, size: 0x8, addend: 0x0, symName: '__ZNSt3__110__function6__funcIZN5Enemy16initDecisionTreeEvE3$_1NS_9allocatorIS3_EEFvvEE7destroyEv', symObjAddr: 0x45BC, symBinAddr: 0x100012970, symSize: 0x28 }
  - { offsetInCU: 0x15210, offset: 0x3F42B, size: 0x8, addend: 0x0, symName: '__ZNSt3__110__function6__funcIZN5Enemy16initDecisionTreeEvE3$_1NS_9allocatorIS3_EEFvvEE18destroy_deallocateEv', symObjAddr: 0x45E4, symBinAddr: 0x100012998, symSize: 0x58 }
  - { offsetInCU: 0x15253, offset: 0x3F46E, size: 0x8, addend: 0x0, symName: '__ZNSt3__110__function6__funcIZN5Enemy16initDecisionTreeEvE3$_1NS_9allocatorIS3_EEFvvEEclEv', symObjAddr: 0x463C, symBinAddr: 0x1000129F0, symSize: 0x28 }
  - { offsetInCU: 0x1527B, offset: 0x3F496, size: 0x8, addend: 0x0, symName: '__ZNKSt3__110__function6__funcIZN5Enemy16initDecisionTreeEvE3$_1NS_9allocatorIS3_EEFvvEE6targetERKSt9type_info', symObjAddr: 0x4664, symBinAddr: 0x100012A18, symSize: 0x60 }
  - { offsetInCU: 0x152B2, offset: 0x3F4CD, size: 0x8, addend: 0x0, symName: '__ZNKSt3__110__function6__funcIZN5Enemy16initDecisionTreeEvE3$_1NS_9allocatorIS3_EEFvvEE11target_typeEv', symObjAddr: 0x46C4, symBinAddr: 0x100012A78, symSize: 0x18 }
  - { offsetInCU: 0x152DA, offset: 0x3F4F5, size: 0x8, addend: 0x0, symName: '__ZNSt3__110__function12__alloc_funcIZN5Enemy16initDecisionTreeEvE3$_1NS_9allocatorIS3_EEFvvEEC2B8ue170006EOS3_OS5_', symObjAddr: 0x46DC, symBinAddr: 0x100012A90, symSize: 0x5C }
  - { offsetInCU: 0x15320, offset: 0x3F53B, size: 0x8, addend: 0x0, symName: '__ZNSt3__117__compressed_pairIZN5Enemy16initDecisionTreeEvE3$_1NS_9allocatorIS2_EEEC1B8ue170006IJOS2_EJOS4_EEENS_21piecewise_construct_tENS_5tupleIJDpT_EEENSA_IJDpT0_EEE', symObjAddr: 0x4790, symBinAddr: 0x100012B44, symSize: 0x3C }
  - { offsetInCU: 0x1538A, offset: 0x3F5A5, size: 0x8, addend: 0x0, symName: '__ZNSt3__15tupleIJOZN5Enemy16initDecisionTreeEvE3$_1EEC1B8ue170006IJS2_ELi0EEEDpOT_', symObjAddr: 0x47CC, symBinAddr: 0x100012B80, symSize: 0x34 }
  - { offsetInCU: 0x153D4, offset: 0x3F5EF, size: 0x8, addend: 0x0, symName: '__ZNSt3__15tupleIJOZN5Enemy16initDecisionTreeEvE3$_1EEC2B8ue170006IJS2_ELi0EEEDpOT_', symObjAddr: 0x4800, symBinAddr: 0x100012BB4, symSize: 0x34 }
  - { offsetInCU: 0x1541E, offset: 0x3F639, size: 0x8, addend: 0x0, symName: '__ZNSt3__112__tuple_implINS_15__tuple_indicesIJLm0EEEEJOZN5Enemy16initDecisionTreeEvE3$_1EEC1B8ue170006IJLm0EEJS5_EJEJEJS4_EEENS1_IJXspT_EEEENS_13__tuple_typesIJDpT0_EEENS1_IJXspT1_EEEENS9_IJDpT2_EEEDpOT3_', symObjAddr: 0x4834, symBinAddr: 0x100012BE8, symSize: 0x34 }
  - { offsetInCU: 0x154AF, offset: 0x3F6CA, size: 0x8, addend: 0x0, symName: '__ZNSt3__112__tuple_implINS_15__tuple_indicesIJLm0EEEEJOZN5Enemy16initDecisionTreeEvE3$_1EEC2B8ue170006IJLm0EEJS5_EJEJEJS4_EEENS1_IJXspT_EEEENS_13__tuple_typesIJDpT0_EEENS1_IJXspT1_EEEENS9_IJDpT2_EEEDpOT3_', symObjAddr: 0x4868, symBinAddr: 0x100012C1C, symSize: 0x34 }
  - { offsetInCU: 0x15540, offset: 0x3F75B, size: 0x8, addend: 0x0, symName: '__ZNSt3__112__tuple_leafILm0EOZN5Enemy16initDecisionTreeEvE3$_1Lb0EEC2B8ue170006IS2_vEEOT_', symObjAddr: 0x489C, symBinAddr: 0x100012C50, symSize: 0x20 }
  - { offsetInCU: 0x15583, offset: 0x3F79E, size: 0x8, addend: 0x0, symName: '__ZNSt3__15tupleIJONS_9allocatorIZN5Enemy16initDecisionTreeEvE3$_1EEEEC1B8ue170006IJS4_ELi0EEEDpOT_', symObjAddr: 0x48BC, symBinAddr: 0x100012C70, symSize: 0x34 }
  - { offsetInCU: 0x155CD, offset: 0x3F7E8, size: 0x8, addend: 0x0, symName: '__ZNSt3__15tupleIJONS_9allocatorIZN5Enemy16initDecisionTreeEvE3$_1EEEEC2B8ue170006IJS4_ELi0EEEDpOT_', symObjAddr: 0x48F0, symBinAddr: 0x100012CA4, symSize: 0x34 }
  - { offsetInCU: 0x15617, offset: 0x3F832, size: 0x8, addend: 0x0, symName: '__ZNSt3__112__tuple_implINS_15__tuple_indicesIJLm0EEEEJONS_9allocatorIZN5Enemy16initDecisionTreeEvE3$_1EEEEC1B8ue170006IJLm0EEJS7_EJEJEJS6_EEENS1_IJXspT_EEEENS_13__tuple_typesIJDpT0_EEENS1_IJXspT1_EEEENSB_IJDpT2_EEEDpOT3_', symObjAddr: 0x4924, symBinAddr: 0x100012CD8, symSize: 0x34 }
  - { offsetInCU: 0x156A8, offset: 0x3F8C3, size: 0x8, addend: 0x0, symName: '__ZNSt3__112__tuple_implINS_15__tuple_indicesIJLm0EEEEJONS_9allocatorIZN5Enemy16initDecisionTreeEvE3$_1EEEEC2B8ue170006IJLm0EEJS7_EJEJEJS6_EEENS1_IJXspT_EEEENS_13__tuple_typesIJDpT0_EEENS1_IJXspT1_EEEENSB_IJDpT2_EEEDpOT3_', symObjAddr: 0x4958, symBinAddr: 0x100012D0C, symSize: 0x34 }
  - { offsetInCU: 0x15739, offset: 0x3F954, size: 0x8, addend: 0x0, symName: '__ZNSt3__112__tuple_leafILm0EONS_9allocatorIZN5Enemy16initDecisionTreeEvE3$_1EELb0EEC2B8ue170006IS4_vEEOT_', symObjAddr: 0x498C, symBinAddr: 0x100012D40, symSize: 0x20 }
  - { offsetInCU: 0x1577C, offset: 0x3F997, size: 0x8, addend: 0x0, symName: '__ZNSt3__117__compressed_pairIZN5Enemy16initDecisionTreeEvE3$_1NS_9allocatorIS2_EEEC2B8ue170006IJOS2_EJOS4_EEENS_21piecewise_construct_tENS_5tupleIJDpT_EEENSA_IJDpT0_EEE', symObjAddr: 0x49AC, symBinAddr: 0x100012D60, symSize: 0x54 }
  - { offsetInCU: 0x157E6, offset: 0x3FA01, size: 0x8, addend: 0x0, symName: '__ZNSt3__122__compressed_pair_elemIZN5Enemy16initDecisionTreeEvE3$_1Li0ELb0EEC2B8ue170006IJOS2_EJLm0EEEENS_21piecewise_construct_tENS_5tupleIJDpT_EEENS_15__tuple_indicesIJXspT0_EEEE', symObjAddr: 0x4A00, symBinAddr: 0x100012DB4, symSize: 0x44 }
  - { offsetInCU: 0x1584B, offset: 0x3FA66, size: 0x8, addend: 0x0, symName: '__ZNSt3__122__compressed_pair_elemINS_9allocatorIZN5Enemy16initDecisionTreeEvE3$_1EELi1ELb1EEC2B8ue170006IJOS4_EJLm0EEEENS_21piecewise_construct_tENS_5tupleIJDpT_EEENS_15__tuple_indicesIJXspT0_EEEE', symObjAddr: 0x4A44, symBinAddr: 0x100012DF8, symSize: 0x38 }
  - { offsetInCU: 0x158B0, offset: 0x3FACB, size: 0x8, addend: 0x0, symName: '__ZNSt3__112__tuple_leafILm0EOZN5Enemy16initDecisionTreeEvE3$_1Lb0EE3getB8ue170006Ev', symObjAddr: 0x4AA0, symBinAddr: 0x100012E54, symSize: 0x18 }
  - { offsetInCU: 0x158D6, offset: 0x3FAF1, size: 0x8, addend: 0x0, symName: '__ZNSt3__112__tuple_leafILm0EONS_9allocatorIZN5Enemy16initDecisionTreeEvE3$_1EELb0EE3getB8ue170006Ev', symObjAddr: 0x4ADC, symBinAddr: 0x100012E90, symSize: 0x18 }
  - { offsetInCU: 0x158FC, offset: 0x3FB17, size: 0x8, addend: 0x0, symName: '__ZNSt3__110__function6__funcIZN5Enemy16initDecisionTreeEvE3$_1NS_9allocatorIS3_EEFvvEED2Ev', symObjAddr: 0x4AF4, symBinAddr: 0x100012EA8, symSize: 0x2C }
  - { offsetInCU: 0x15929, offset: 0x3FB44, size: 0x8, addend: 0x0, symName: '__ZNKSt3__110__function12__alloc_funcIZN5Enemy16initDecisionTreeEvE3$_1NS_9allocatorIS3_EEFvvEE15__get_allocatorB8ue170006Ev', symObjAddr: 0x4B20, symBinAddr: 0x100012ED4, symSize: 0x24 }
  - { offsetInCU: 0x1594F, offset: 0x3FB6A, size: 0x8, addend: 0x0, symName: '__ZNSt3__19allocatorINS_10__function6__funcIZN5Enemy16initDecisionTreeEvE3$_1NS0_IS4_EEFvvEEEE8allocateB8ue170006Em', symObjAddr: 0x4B44, symBinAddr: 0x100012EF8, symSize: 0x58 }
  - { offsetInCU: 0x15992, offset: 0x3FBAD, size: 0x8, addend: 0x0, symName: '__ZNSt3__122__allocator_destructorINS_9allocatorINS_10__function6__funcIZN5Enemy16initDecisionTreeEvE3$_1NS1_IS5_EEFvvEEEEEEC1B8ue170006ERS9_m', symObjAddr: 0x4B9C, symBinAddr: 0x100012F50, symSize: 0x3C }
  - { offsetInCU: 0x15A64, offset: 0x3FC7F, size: 0x8, addend: 0x0, symName: '__ZNSt3__110unique_ptrINS_10__function6__funcIZN5Enemy16initDecisionTreeEvE3$_1NS_9allocatorIS4_EEFvvEEENS_22__allocator_destructorINS5_IS8_EEEEEC1B8ue170006ILb1EvEEPS8_NS_16__dependent_typeINS_27__unique_ptr_deleter_sfinaeISB_EEXT_EE20__good_rval_ref_typeE', symObjAddr: 0x4BD8, symBinAddr: 0x100012F8C, symSize: 0x3C }
  - { offsetInCU: 0x15AB5, offset: 0x3FCD0, size: 0x8, addend: 0x0, symName: '__ZNKSt3__110unique_ptrINS_10__function6__funcIZN5Enemy16initDecisionTreeEvE3$_1NS_9allocatorIS4_EEFvvEEENS_22__allocator_destructorINS5_IS8_EEEEE3getB8ue170006Ev', symObjAddr: 0x4C14, symBinAddr: 0x100012FC8, symSize: 0x28 }
  - { offsetInCU: 0x15ADB, offset: 0x3FCF6, size: 0x8, addend: 0x0, symName: '__ZNKSt3__110__function12__alloc_funcIZN5Enemy16initDecisionTreeEvE3$_1NS_9allocatorIS3_EEFvvEE8__targetB8ue170006Ev', symObjAddr: 0x4C3C, symBinAddr: 0x100012FF0, symSize: 0x24 }
  - { offsetInCU: 0x15B01, offset: 0x3FD1C, size: 0x8, addend: 0x0, symName: '__ZNSt3__110__function6__funcIZN5Enemy16initDecisionTreeEvE3$_1NS_9allocatorIS3_EEFvvEEC1B8ue170006ERKS3_OS5_', symObjAddr: 0x4C60, symBinAddr: 0x100013014, symSize: 0x3C }
  - { offsetInCU: 0x15B49, offset: 0x3FD64, size: 0x8, addend: 0x0, symName: '__ZNSt3__110unique_ptrINS_10__function6__funcIZN5Enemy16initDecisionTreeEvE3$_1NS_9allocatorIS4_EEFvvEEENS_22__allocator_destructorINS5_IS8_EEEEE7releaseB8ue170006Ev', symObjAddr: 0x4C9C, symBinAddr: 0x100013050, symSize: 0x44 }
  - { offsetInCU: 0x15B7E, offset: 0x3FD99, size: 0x8, addend: 0x0, symName: '__ZNSt3__110unique_ptrINS_10__function6__funcIZN5Enemy16initDecisionTreeEvE3$_1NS_9allocatorIS4_EEFvvEEENS_22__allocator_destructorINS5_IS8_EEEEED1B8ue170006Ev', symObjAddr: 0x4CE0, symBinAddr: 0x100013094, symSize: 0x2C }
  - { offsetInCU: 0x15BA8, offset: 0x3FDC3, size: 0x8, addend: 0x0, symName: '__ZNKSt3__117__compressed_pairIZN5Enemy16initDecisionTreeEvE3$_1NS_9allocatorIS2_EEE6secondB8ue170006Ev', symObjAddr: 0x4D0C, symBinAddr: 0x1000130C0, symSize: 0x24 }
  - { offsetInCU: 0x15BCE, offset: 0x3FDE9, size: 0x8, addend: 0x0, symName: '__ZNKSt3__122__compressed_pair_elemINS_9allocatorIZN5Enemy16initDecisionTreeEvE3$_1EELi1ELb1EE5__getB8ue170006Ev', symObjAddr: 0x4D30, symBinAddr: 0x1000130E4, symSize: 0x14 }
  - { offsetInCU: 0x15BFE, offset: 0x3FE19, size: 0x8, addend: 0x0, symName: '__ZNSt3__116allocator_traitsINS_9allocatorINS_10__function6__funcIZN5Enemy16initDecisionTreeEvE3$_1NS1_IS5_EEFvvEEEEEE8max_sizeB8ue170006IS9_vEEmRKS9_', symObjAddr: 0x4D44, symBinAddr: 0x1000130F8, symSize: 0x24 }
  - { offsetInCU: 0x15C2C, offset: 0x3FE47, size: 0x8, addend: 0x0, symName: '__ZNKSt3__19allocatorINS_10__function6__funcIZN5Enemy16initDecisionTreeEvE3$_1NS0_IS4_EEFvvEEEE8max_sizeB8ue170006Ev', symObjAddr: 0x4D68, symBinAddr: 0x10001311C, symSize: 0x14 }
  - { offsetInCU: 0x15C52, offset: 0x3FE6D, size: 0x8, addend: 0x0, symName: '__ZNSt3__122__allocator_destructorINS_9allocatorINS_10__function6__funcIZN5Enemy16initDecisionTreeEvE3$_1NS1_IS5_EEFvvEEEEEEC2B8ue170006ERS9_m', symObjAddr: 0x4D7C, symBinAddr: 0x100013130, symSize: 0x2C }
  - { offsetInCU: 0x15C98, offset: 0x3FEB3, size: 0x8, addend: 0x0, symName: '__ZNSt3__110unique_ptrINS_10__function6__funcIZN5Enemy16initDecisionTreeEvE3$_1NS_9allocatorIS4_EEFvvEEENS_22__allocator_destructorINS5_IS8_EEEEEC2B8ue170006ILb1EvEEPS8_NS_16__dependent_typeINS_27__unique_ptr_deleter_sfinaeISB_EEXT_EE20__good_rval_ref_typeE', symObjAddr: 0x4DA8, symBinAddr: 0x10001315C, symSize: 0x48 }
  - { offsetInCU: 0x15CE9, offset: 0x3FF04, size: 0x8, addend: 0x0, symName: '__ZNSt3__117__compressed_pairIPNS_10__function6__funcIZN5Enemy16initDecisionTreeEvE3$_1NS_9allocatorIS4_EEFvvEEENS_22__allocator_destructorINS5_IS8_EEEEEC1B8ue170006IRS9_SC_EEOT_OT0_', symObjAddr: 0x4DF0, symBinAddr: 0x1000131A4, symSize: 0x3C }
  - { offsetInCU: 0x15D41, offset: 0x3FF5C, size: 0x8, addend: 0x0, symName: '__ZNSt3__117__compressed_pairIPNS_10__function6__funcIZN5Enemy16initDecisionTreeEvE3$_1NS_9allocatorIS4_EEFvvEEENS_22__allocator_destructorINS5_IS8_EEEEEC2B8ue170006IRS9_SC_EEOT_OT0_', symObjAddr: 0x4E2C, symBinAddr: 0x1000131E0, symSize: 0x48 }
  - { offsetInCU: 0x15D99, offset: 0x3FFB4, size: 0x8, addend: 0x0, symName: '__ZNSt3__122__compressed_pair_elemIPNS_10__function6__funcIZN5Enemy16initDecisionTreeEvE3$_1NS_9allocatorIS4_EEFvvEEELi0ELb0EEC2B8ue170006IRS9_vEEOT_', symObjAddr: 0x4E74, symBinAddr: 0x100013228, symSize: 0x24 }
  - { offsetInCU: 0x15DDB, offset: 0x3FFF6, size: 0x8, addend: 0x0, symName: '__ZNSt3__122__compressed_pair_elemINS_22__allocator_destructorINS_9allocatorINS_10__function6__funcIZN5Enemy16initDecisionTreeEvE3$_1NS2_IS6_EEFvvEEEEEEELi1ELb0EEC2B8ue170006ISB_vEEOT_', symObjAddr: 0x4E98, symBinAddr: 0x10001324C, symSize: 0x24 }
  - { offsetInCU: 0x15E1D, offset: 0x40038, size: 0x8, addend: 0x0, symName: '__ZNKSt3__117__compressed_pairIPNS_10__function6__funcIZN5Enemy16initDecisionTreeEvE3$_1NS_9allocatorIS4_EEFvvEEENS_22__allocator_destructorINS5_IS8_EEEEE5firstB8ue170006Ev', symObjAddr: 0x4EBC, symBinAddr: 0x100013270, symSize: 0x24 }
  - { offsetInCU: 0x15E43, offset: 0x4005E, size: 0x8, addend: 0x0, symName: '__ZNKSt3__122__compressed_pair_elemIPNS_10__function6__funcIZN5Enemy16initDecisionTreeEvE3$_1NS_9allocatorIS4_EEFvvEEELi0ELb0EE5__getB8ue170006Ev', symObjAddr: 0x4EE0, symBinAddr: 0x100013294, symSize: 0x14 }
  - { offsetInCU: 0x15E69, offset: 0x40084, size: 0x8, addend: 0x0, symName: '__ZNKSt3__117__compressed_pairIZN5Enemy16initDecisionTreeEvE3$_1NS_9allocatorIS2_EEE5firstB8ue170006Ev', symObjAddr: 0x4EF4, symBinAddr: 0x1000132A8, symSize: 0x24 }
  - { offsetInCU: 0x15E8F, offset: 0x400AA, size: 0x8, addend: 0x0, symName: '__ZNKSt3__122__compressed_pair_elemIZN5Enemy16initDecisionTreeEvE3$_1Li0ELb0EE5__getB8ue170006Ev', symObjAddr: 0x4F18, symBinAddr: 0x1000132CC, symSize: 0x14 }
  - { offsetInCU: 0x15EB5, offset: 0x400D0, size: 0x8, addend: 0x0, symName: '__ZNSt3__110__function6__funcIZN5Enemy16initDecisionTreeEvE3$_1NS_9allocatorIS3_EEFvvEEC2B8ue170006ERKS3_OS5_', symObjAddr: 0x4F2C, symBinAddr: 0x1000132E0, symSize: 0x88 }
  - { offsetInCU: 0x15EFD, offset: 0x40118, size: 0x8, addend: 0x0, symName: '__ZNSt3__110__function12__alloc_funcIZN5Enemy16initDecisionTreeEvE3$_1NS_9allocatorIS3_EEFvvEEC1B8ue170006ERKS3_OS5_', symObjAddr: 0x4FB4, symBinAddr: 0x100013368, symSize: 0x3C }
  - { offsetInCU: 0x15F43, offset: 0x4015E, size: 0x8, addend: 0x0, symName: '__ZNSt3__110__function12__alloc_funcIZN5Enemy16initDecisionTreeEvE3$_1NS_9allocatorIS3_EEFvvEEC2B8ue170006ERKS3_OS5_', symObjAddr: 0x4FF0, symBinAddr: 0x1000133A4, symSize: 0x5C }
  - { offsetInCU: 0x15F89, offset: 0x401A4, size: 0x8, addend: 0x0, symName: '__ZNSt3__117__compressed_pairIZN5Enemy16initDecisionTreeEvE3$_1NS_9allocatorIS2_EEEC1B8ue170006IJRKS2_EJOS4_EEENS_21piecewise_construct_tENS_5tupleIJDpT_EEENSB_IJDpT0_EEE', symObjAddr: 0x5078, symBinAddr: 0x10001342C, symSize: 0x3C }
  - { offsetInCU: 0x15FF3, offset: 0x4020E, size: 0x8, addend: 0x0, symName: '__ZNSt3__15tupleIJRKZN5Enemy16initDecisionTreeEvE3$_1EEC1B8ue170006INS_4_AndELi0EEES4_', symObjAddr: 0x50B4, symBinAddr: 0x100013468, symSize: 0x34 }
  - { offsetInCU: 0x1603C, offset: 0x40257, size: 0x8, addend: 0x0, symName: '__ZNSt3__15tupleIJRKZN5Enemy16initDecisionTreeEvE3$_1EEC2B8ue170006INS_4_AndELi0EEES4_', symObjAddr: 0x50E8, symBinAddr: 0x10001349C, symSize: 0x34 }
  - { offsetInCU: 0x16085, offset: 0x402A0, size: 0x8, addend: 0x0, symName: '__ZNSt3__112__tuple_implINS_15__tuple_indicesIJLm0EEEEJRKZN5Enemy16initDecisionTreeEvE3$_1EEC1B8ue170006IJLm0EEJS6_EJEJEJS6_EEENS1_IJXspT_EEEENS_13__tuple_typesIJDpT0_EEENS1_IJXspT1_EEEENSA_IJDpT2_EEEDpOT3_', symObjAddr: 0x511C, symBinAddr: 0x1000134D0, symSize: 0x34 }
  - { offsetInCU: 0x16116, offset: 0x40331, size: 0x8, addend: 0x0, symName: '__ZNSt3__112__tuple_implINS_15__tuple_indicesIJLm0EEEEJRKZN5Enemy16initDecisionTreeEvE3$_1EEC2B8ue170006IJLm0EEJS6_EJEJEJS6_EEENS1_IJXspT_EEEENS_13__tuple_typesIJDpT0_EEENS1_IJXspT1_EEEENSA_IJDpT2_EEEDpOT3_', symObjAddr: 0x5150, symBinAddr: 0x100013504, symSize: 0x34 }
  - { offsetInCU: 0x161A7, offset: 0x403C2, size: 0x8, addend: 0x0, symName: '__ZNSt3__112__tuple_leafILm0ERKZN5Enemy16initDecisionTreeEvE3$_1Lb0EEC2B8ue170006IS4_vEEOT_', symObjAddr: 0x5184, symBinAddr: 0x100013538, symSize: 0x20 }
  - { offsetInCU: 0x161EA, offset: 0x40405, size: 0x8, addend: 0x0, symName: '__ZNSt3__117__compressed_pairIZN5Enemy16initDecisionTreeEvE3$_1NS_9allocatorIS2_EEEC2B8ue170006IJRKS2_EJOS4_EEENS_21piecewise_construct_tENS_5tupleIJDpT_EEENSB_IJDpT0_EEE', symObjAddr: 0x51A4, symBinAddr: 0x100013558, symSize: 0x54 }
  - { offsetInCU: 0x16254, offset: 0x4046F, size: 0x8, addend: 0x0, symName: '__ZNSt3__122__compressed_pair_elemIZN5Enemy16initDecisionTreeEvE3$_1Li0ELb0EEC2B8ue170006IJRKS2_EJLm0EEEENS_21piecewise_construct_tENS_5tupleIJDpT_EEENS_15__tuple_indicesIJXspT0_EEEE', symObjAddr: 0x51F8, symBinAddr: 0x1000135AC, symSize: 0x44 }
  - { offsetInCU: 0x162B9, offset: 0x404D4, size: 0x8, addend: 0x0, symName: '__ZNSt3__112__tuple_leafILm0ERKZN5Enemy16initDecisionTreeEvE3$_1Lb0EE3getB8ue170006Ev', symObjAddr: 0x5260, symBinAddr: 0x100013614, symSize: 0x18 }
  - { offsetInCU: 0x162DF, offset: 0x404FA, size: 0x8, addend: 0x0, symName: '__ZNSt3__117__compressed_pairIPNS_10__function6__funcIZN5Enemy16initDecisionTreeEvE3$_1NS_9allocatorIS4_EEFvvEEENS_22__allocator_destructorINS5_IS8_EEEEE5firstB8ue170006Ev', symObjAddr: 0x5278, symBinAddr: 0x10001362C, symSize: 0x24 }
  - { offsetInCU: 0x16305, offset: 0x40520, size: 0x8, addend: 0x0, symName: '__ZNSt3__122__compressed_pair_elemIPNS_10__function6__funcIZN5Enemy16initDecisionTreeEvE3$_1NS_9allocatorIS4_EEFvvEEELi0ELb0EE5__getB8ue170006Ev', symObjAddr: 0x529C, symBinAddr: 0x100013650, symSize: 0x14 }
  - { offsetInCU: 0x1632B, offset: 0x40546, size: 0x8, addend: 0x0, symName: '__ZNSt3__110unique_ptrINS_10__function6__funcIZN5Enemy16initDecisionTreeEvE3$_1NS_9allocatorIS4_EEFvvEEENS_22__allocator_destructorINS5_IS8_EEEEED2B8ue170006Ev', symObjAddr: 0x52B0, symBinAddr: 0x100013664, symSize: 0x30 }
  - { offsetInCU: 0x16355, offset: 0x40570, size: 0x8, addend: 0x0, symName: '__ZNSt3__110unique_ptrINS_10__function6__funcIZN5Enemy16initDecisionTreeEvE3$_1NS_9allocatorIS4_EEFvvEEENS_22__allocator_destructorINS5_IS8_EEEEE5resetB8ue170006EPS8_', symObjAddr: 0x52E0, symBinAddr: 0x100013694, symSize: 0x78 }
  - { offsetInCU: 0x16399, offset: 0x405B4, size: 0x8, addend: 0x0, symName: '__ZNSt3__117__compressed_pairIPNS_10__function6__funcIZN5Enemy16initDecisionTreeEvE3$_1NS_9allocatorIS4_EEFvvEEENS_22__allocator_destructorINS5_IS8_EEEEE6secondB8ue170006Ev', symObjAddr: 0x5358, symBinAddr: 0x10001370C, symSize: 0x28 }
  - { offsetInCU: 0x163BF, offset: 0x405DA, size: 0x8, addend: 0x0, symName: '__ZNSt3__122__allocator_destructorINS_9allocatorINS_10__function6__funcIZN5Enemy16initDecisionTreeEvE3$_1NS1_IS5_EEFvvEEEEEEclB8ue170006EPS8_', symObjAddr: 0x5380, symBinAddr: 0x100013734, symSize: 0x34 }
  - { offsetInCU: 0x163F3, offset: 0x4060E, size: 0x8, addend: 0x0, symName: '__ZNSt3__122__compressed_pair_elemINS_22__allocator_destructorINS_9allocatorINS_10__function6__funcIZN5Enemy16initDecisionTreeEvE3$_1NS2_IS6_EEFvvEEEEEEELi1ELb0EE5__getB8ue170006Ev', symObjAddr: 0x53B4, symBinAddr: 0x100013768, symSize: 0x14 }
  - { offsetInCU: 0x16419, offset: 0x40634, size: 0x8, addend: 0x0, symName: '__ZNSt3__116allocator_traitsINS_9allocatorINS_10__function6__funcIZN5Enemy16initDecisionTreeEvE3$_1NS1_IS5_EEFvvEEEEEE10deallocateB8ue170006ERS9_PS8_m', symObjAddr: 0x53C8, symBinAddr: 0x10001377C, symSize: 0x34 }
  - { offsetInCU: 0x1645B, offset: 0x40676, size: 0x8, addend: 0x0, symName: '__ZNSt3__19allocatorINS_10__function6__funcIZN5Enemy16initDecisionTreeEvE3$_1NS0_IS4_EEFvvEEEE10deallocateB8ue170006EPS7_m', symObjAddr: 0x53FC, symBinAddr: 0x1000137B0, symSize: 0x40 }
  - { offsetInCU: 0x1649D, offset: 0x406B8, size: 0x8, addend: 0x0, symName: '__ZNSt3__110__function6__funcIZN5Enemy16initDecisionTreeEvE3$_1NS_9allocatorIS3_EEFvvEEC1B8ue170006ERKS3_RKS5_', symObjAddr: 0x543C, symBinAddr: 0x1000137F0, symSize: 0x3C }
  - { offsetInCU: 0x164E5, offset: 0x40700, size: 0x8, addend: 0x0, symName: '__ZNSt3__110__function6__funcIZN5Enemy16initDecisionTreeEvE3$_1NS_9allocatorIS3_EEFvvEEC2B8ue170006ERKS3_RKS5_', symObjAddr: 0x5478, symBinAddr: 0x10001382C, symSize: 0x88 }
  - { offsetInCU: 0x1652D, offset: 0x40748, size: 0x8, addend: 0x0, symName: '__ZNSt3__110__function12__alloc_funcIZN5Enemy16initDecisionTreeEvE3$_1NS_9allocatorIS3_EEFvvEEC1B8ue170006ERKS3_RKS5_', symObjAddr: 0x5500, symBinAddr: 0x1000138B4, symSize: 0x3C }
  - { offsetInCU: 0x16573, offset: 0x4078E, size: 0x8, addend: 0x0, symName: '__ZNSt3__110__function12__alloc_funcIZN5Enemy16initDecisionTreeEvE3$_1NS_9allocatorIS3_EEFvvEEC2B8ue170006ERKS3_RKS5_', symObjAddr: 0x553C, symBinAddr: 0x1000138F0, symSize: 0x5C }
  - { offsetInCU: 0x165B9, offset: 0x407D4, size: 0x8, addend: 0x0, symName: '__ZNSt3__117__compressed_pairIZN5Enemy16initDecisionTreeEvE3$_1NS_9allocatorIS2_EEEC1B8ue170006IJRKS2_EJRKS4_EEENS_21piecewise_construct_tENS_5tupleIJDpT_EEENSC_IJDpT0_EEE', symObjAddr: 0x55C4, symBinAddr: 0x100013978, symSize: 0x3C }
  - { offsetInCU: 0x16623, offset: 0x4083E, size: 0x8, addend: 0x0, symName: '__ZNSt3__15tupleIJRKNS_9allocatorIZN5Enemy16initDecisionTreeEvE3$_1EEEEC1B8ue170006INS_4_AndELi0EEES6_', symObjAddr: 0x5600, symBinAddr: 0x1000139B4, symSize: 0x34 }
  - { offsetInCU: 0x1666C, offset: 0x40887, size: 0x8, addend: 0x0, symName: '__ZNSt3__15tupleIJRKNS_9allocatorIZN5Enemy16initDecisionTreeEvE3$_1EEEEC2B8ue170006INS_4_AndELi0EEES6_', symObjAddr: 0x5634, symBinAddr: 0x1000139E8, symSize: 0x34 }
  - { offsetInCU: 0x166B5, offset: 0x408D0, size: 0x8, addend: 0x0, symName: '__ZNSt3__112__tuple_implINS_15__tuple_indicesIJLm0EEEEJRKNS_9allocatorIZN5Enemy16initDecisionTreeEvE3$_1EEEEC1B8ue170006IJLm0EEJS8_EJEJEJS8_EEENS1_IJXspT_EEEENS_13__tuple_typesIJDpT0_EEENS1_IJXspT1_EEEENSC_IJDpT2_EEEDpOT3_', symObjAddr: 0x5668, symBinAddr: 0x100013A1C, symSize: 0x34 }
  - { offsetInCU: 0x16746, offset: 0x40961, size: 0x8, addend: 0x0, symName: '__ZNSt3__112__tuple_implINS_15__tuple_indicesIJLm0EEEEJRKNS_9allocatorIZN5Enemy16initDecisionTreeEvE3$_1EEEEC2B8ue170006IJLm0EEJS8_EJEJEJS8_EEENS1_IJXspT_EEEENS_13__tuple_typesIJDpT0_EEENS1_IJXspT1_EEEENSC_IJDpT2_EEEDpOT3_', symObjAddr: 0x569C, symBinAddr: 0x100013A50, symSize: 0x34 }
  - { offsetInCU: 0x167D7, offset: 0x409F2, size: 0x8, addend: 0x0, symName: '__ZNSt3__112__tuple_leafILm0ERKNS_9allocatorIZN5Enemy16initDecisionTreeEvE3$_1EELb0EEC2B8ue170006IS6_vEEOT_', symObjAddr: 0x56D0, symBinAddr: 0x100013A84, symSize: 0x20 }
  - { offsetInCU: 0x1681A, offset: 0x40A35, size: 0x8, addend: 0x0, symName: '__ZNSt3__117__compressed_pairIZN5Enemy16initDecisionTreeEvE3$_1NS_9allocatorIS2_EEEC2B8ue170006IJRKS2_EJRKS4_EEENS_21piecewise_construct_tENS_5tupleIJDpT_EEENSC_IJDpT0_EEE', symObjAddr: 0x56F0, symBinAddr: 0x100013AA4, symSize: 0x54 }
  - { offsetInCU: 0x16884, offset: 0x40A9F, size: 0x8, addend: 0x0, symName: '__ZNSt3__122__compressed_pair_elemINS_9allocatorIZN5Enemy16initDecisionTreeEvE3$_1EELi1ELb1EEC2B8ue170006IJRKS4_EJLm0EEEENS_21piecewise_construct_tENS_5tupleIJDpT_EEENS_15__tuple_indicesIJXspT0_EEEE', symObjAddr: 0x5744, symBinAddr: 0x100013AF8, symSize: 0x38 }
  - { offsetInCU: 0x168E9, offset: 0x40B04, size: 0x8, addend: 0x0, symName: '__ZNSt3__112__tuple_leafILm0ERKNS_9allocatorIZN5Enemy16initDecisionTreeEvE3$_1EELb0EE3getB8ue170006Ev', symObjAddr: 0x57A0, symBinAddr: 0x100013B54, symSize: 0x18 }
  - { offsetInCU: 0x1690F, offset: 0x40B2A, size: 0x8, addend: 0x0, symName: '__ZNSt3__110__function12__alloc_funcIZN5Enemy16initDecisionTreeEvE3$_1NS_9allocatorIS3_EEFvvEE7destroyB8ue170006Ev', symObjAddr: 0x57B8, symBinAddr: 0x100013B6C, symSize: 0x10 }
  - { offsetInCU: 0x16935, offset: 0x40B50, size: 0x8, addend: 0x0, symName: '__ZNSt3__110__function12__alloc_funcIZN5Enemy16initDecisionTreeEvE3$_1NS_9allocatorIS3_EEFvvEEclB8ue170006Ev', symObjAddr: 0x57C8, symBinAddr: 0x100013B7C, symSize: 0x28 }
  - { offsetInCU: 0x1695B, offset: 0x40B76, size: 0x8, addend: 0x0, symName: '__ZNSt3__128__invoke_void_return_wrapperIvLb1EE6__callB8ue170006IJRZN5Enemy16initDecisionTreeEvE3$_1EEEvDpOT_', symObjAddr: 0x57F0, symBinAddr: 0x100013BA4, symSize: 0x24 }
  - { offsetInCU: 0x1698A, offset: 0x40BA5, size: 0x8, addend: 0x0, symName: '__ZNSt3__117__compressed_pairIZN5Enemy16initDecisionTreeEvE3$_1NS_9allocatorIS2_EEE5firstB8ue170006Ev', symObjAddr: 0x5814, symBinAddr: 0x100013BC8, symSize: 0x24 }
  - { offsetInCU: 0x169B5, offset: 0x40BD0, size: 0x8, addend: 0x0, symName: '__ZZN5Enemy16initDecisionTreeEvENK3$_1clEv', symObjAddr: 0x585C, symBinAddr: 0x100013C10, symSize: 0x28 }
  - { offsetInCU: 0x169DF, offset: 0x40BFA, size: 0x8, addend: 0x0, symName: '__ZNSt3__122__compressed_pair_elemIZN5Enemy16initDecisionTreeEvE3$_1Li0ELb0EE5__getB8ue170006Ev', symObjAddr: 0x5884, symBinAddr: 0x100013C38, symSize: 0x14 }
  - { offsetInCU: 0x16A05, offset: 0x40C20, size: 0x8, addend: 0x0, symName: '__ZNSt3__18functionIFvvEEC2IZN5Enemy16initDecisionTreeEvE3$_2vEET_', symObjAddr: 0x5898, symBinAddr: 0x100013C4C, symSize: 0x38 }
  - { offsetInCU: 0x16A4A, offset: 0x40C65, size: 0x8, addend: 0x0, symName: '__ZNSt3__110__function12__value_funcIFvvEEC1B8ue170006IZN5Enemy16initDecisionTreeEvE3$_2vEEOT_', symObjAddr: 0x58D0, symBinAddr: 0x100013C84, symSize: 0x50 }
  - { offsetInCU: 0x16A8D, offset: 0x40CA8, size: 0x8, addend: 0x0, symName: '__ZNSt3__19allocatorIZN5Enemy16initDecisionTreeEvE3$_2EC1B8ue170006Ev', symObjAddr: 0x5920, symBinAddr: 0x100013CD4, symSize: 0x2C }
  - { offsetInCU: 0x16AB7, offset: 0x40CD2, size: 0x8, addend: 0x0, symName: '__ZNSt3__110__function12__value_funcIFvvEEC1B8ue170006IZN5Enemy16initDecisionTreeEvE3$_2NS_9allocatorIS6_EEEEOT_RKT0_', symObjAddr: 0x594C, symBinAddr: 0x100013D00, symSize: 0x3C }
  - { offsetInCU: 0x16B11, offset: 0x40D2C, size: 0x8, addend: 0x0, symName: '__ZNSt3__19allocatorIZN5Enemy16initDecisionTreeEvE3$_2EC2B8ue170006Ev', symObjAddr: 0x5988, symBinAddr: 0x100013D3C, symSize: 0x2C }
  - { offsetInCU: 0x16B3B, offset: 0x40D56, size: 0x8, addend: 0x0, symName: '__ZNSt3__116__non_trivial_ifILb1ENS_9allocatorIZN5Enemy16initDecisionTreeEvE3$_2EEEC2B8ue170006Ev', symObjAddr: 0x59B4, symBinAddr: 0x100013D68, symSize: 0x14 }
  - { offsetInCU: 0x16B65, offset: 0x40D80, size: 0x8, addend: 0x0, symName: '__ZNSt3__110__function12__value_funcIFvvEEC2B8ue170006IZN5Enemy16initDecisionTreeEvE3$_2NS_9allocatorIS6_EEEEOT_RKT0_', symObjAddr: 0x59C8, symBinAddr: 0x100013D7C, symSize: 0x94 }
  - { offsetInCU: 0x16C0B, offset: 0x40E26, size: 0x8, addend: 0x0, symName: '__ZNSt3__19allocatorINS_10__function6__funcIZN5Enemy16initDecisionTreeEvE3$_2NS0_IS4_EEFvvEEEEC1B8ue170006IS4_EERKNS0_IT_EE', symObjAddr: 0x5A74, symBinAddr: 0x100013E28, symSize: 0x34 }
  - { offsetInCU: 0x16C4E, offset: 0x40E69, size: 0x8, addend: 0x0, symName: '__ZNSt3__19allocatorIZN5Enemy16initDecisionTreeEvE3$_2EC1B8ue170006INS_10__function6__funcIS2_S3_FvvEEEEERKNS0_IT_EE', symObjAddr: 0x5AA8, symBinAddr: 0x100013E5C, symSize: 0x34 }
  - { offsetInCU: 0x16C8C, offset: 0x40EA7, size: 0x8, addend: 0x0, symName: '__ZNSt3__110__function6__funcIZN5Enemy16initDecisionTreeEvE3$_2NS_9allocatorIS3_EEFvvEEC1B8ue170006EOS3_OS5_', symObjAddr: 0x5ADC, symBinAddr: 0x100013E90, symSize: 0x3C }
  - { offsetInCU: 0x16CD4, offset: 0x40EEF, size: 0x8, addend: 0x0, symName: '__ZNSt3__19allocatorINS_10__function6__funcIZN5Enemy16initDecisionTreeEvE3$_2NS0_IS4_EEFvvEEEEC2B8ue170006IS4_EERKNS0_IT_EE', symObjAddr: 0x5B18, symBinAddr: 0x100013ECC, symSize: 0x30 }
  - { offsetInCU: 0x16D12, offset: 0x40F2D, size: 0x8, addend: 0x0, symName: '__ZNSt3__116__non_trivial_ifILb1ENS_9allocatorINS_10__function6__funcIZN5Enemy16initDecisionTreeEvE3$_2NS1_IS5_EEFvvEEEEEEC2B8ue170006Ev', symObjAddr: 0x5B48, symBinAddr: 0x100013EFC, symSize: 0x14 }
  - { offsetInCU: 0x16D3C, offset: 0x40F57, size: 0x8, addend: 0x0, symName: '__ZNSt3__19allocatorIZN5Enemy16initDecisionTreeEvE3$_2EC2B8ue170006INS_10__function6__funcIS2_S3_FvvEEEEERKNS0_IT_EE', symObjAddr: 0x5B5C, symBinAddr: 0x100013F10, symSize: 0x30 }
  - { offsetInCU: 0x16D7A, offset: 0x40F95, size: 0x8, addend: 0x0, symName: '__ZNSt3__110__function6__funcIZN5Enemy16initDecisionTreeEvE3$_2NS_9allocatorIS3_EEFvvEEC2B8ue170006EOS3_OS5_', symObjAddr: 0x5B8C, symBinAddr: 0x100013F40, symSize: 0x88 }
  - { offsetInCU: 0x16DC2, offset: 0x40FDD, size: 0x8, addend: 0x0, symName: '__ZNSt3__110__function12__alloc_funcIZN5Enemy16initDecisionTreeEvE3$_2NS_9allocatorIS3_EEFvvEEC1B8ue170006EOS3_OS5_', symObjAddr: 0x5C14, symBinAddr: 0x100013FC8, symSize: 0x3C }
  - { offsetInCU: 0x16E08, offset: 0x41023, size: 0x8, addend: 0x0, symName: '__ZNSt3__110__function6__funcIZN5Enemy16initDecisionTreeEvE3$_2NS_9allocatorIS3_EEFvvEED1Ev', symObjAddr: 0x5C50, symBinAddr: 0x100014004, symSize: 0x2C }
  - { offsetInCU: 0x16E35, offset: 0x41050, size: 0x8, addend: 0x0, symName: '__ZNSt3__110__function6__funcIZN5Enemy16initDecisionTreeEvE3$_2NS_9allocatorIS3_EEFvvEED0Ev', symObjAddr: 0x5C7C, symBinAddr: 0x100014030, symSize: 0x30 }
  - { offsetInCU: 0x16E62, offset: 0x4107D, size: 0x8, addend: 0x0, symName: '__ZNKSt3__110__function6__funcIZN5Enemy16initDecisionTreeEvE3$_2NS_9allocatorIS3_EEFvvEE7__cloneEv', symObjAddr: 0x5CAC, symBinAddr: 0x100014060, symSize: 0xFC }
  - { offsetInCU: 0x16EB4, offset: 0x410CF, size: 0x8, addend: 0x0, symName: '__ZNKSt3__110__function6__funcIZN5Enemy16initDecisionTreeEvE3$_2NS_9allocatorIS3_EEFvvEE7__cloneEPNS0_6__baseIS6_EE', symObjAddr: 0x5DA8, symBinAddr: 0x10001415C, symSize: 0x58 }
  - { offsetInCU: 0x16EEB, offset: 0x41106, size: 0x8, addend: 0x0, symName: '__ZNSt3__110__function6__funcIZN5Enemy16initDecisionTreeEvE3$_2NS_9allocatorIS3_EEFvvEE7destroyEv', symObjAddr: 0x5E00, symBinAddr: 0x1000141B4, symSize: 0x28 }
  - { offsetInCU: 0x16F13, offset: 0x4112E, size: 0x8, addend: 0x0, symName: '__ZNSt3__110__function6__funcIZN5Enemy16initDecisionTreeEvE3$_2NS_9allocatorIS3_EEFvvEE18destroy_deallocateEv', symObjAddr: 0x5E28, symBinAddr: 0x1000141DC, symSize: 0x58 }
  - { offsetInCU: 0x16F56, offset: 0x41171, size: 0x8, addend: 0x0, symName: '__ZNSt3__110__function6__funcIZN5Enemy16initDecisionTreeEvE3$_2NS_9allocatorIS3_EEFvvEEclEv', symObjAddr: 0x5E80, symBinAddr: 0x100014234, symSize: 0x28 }
  - { offsetInCU: 0x16F7E, offset: 0x41199, size: 0x8, addend: 0x0, symName: '__ZNKSt3__110__function6__funcIZN5Enemy16initDecisionTreeEvE3$_2NS_9allocatorIS3_EEFvvEE6targetERKSt9type_info', symObjAddr: 0x5EA8, symBinAddr: 0x10001425C, symSize: 0x60 }
  - { offsetInCU: 0x16FB5, offset: 0x411D0, size: 0x8, addend: 0x0, symName: '__ZNKSt3__110__function6__funcIZN5Enemy16initDecisionTreeEvE3$_2NS_9allocatorIS3_EEFvvEE11target_typeEv', symObjAddr: 0x5F08, symBinAddr: 0x1000142BC, symSize: 0x18 }
  - { offsetInCU: 0x16FDD, offset: 0x411F8, size: 0x8, addend: 0x0, symName: '__ZNSt3__110__function12__alloc_funcIZN5Enemy16initDecisionTreeEvE3$_2NS_9allocatorIS3_EEFvvEEC2B8ue170006EOS3_OS5_', symObjAddr: 0x5F20, symBinAddr: 0x1000142D4, symSize: 0x5C }
  - { offsetInCU: 0x17023, offset: 0x4123E, size: 0x8, addend: 0x0, symName: '__ZNSt3__117__compressed_pairIZN5Enemy16initDecisionTreeEvE3$_2NS_9allocatorIS2_EEEC1B8ue170006IJOS2_EJOS4_EEENS_21piecewise_construct_tENS_5tupleIJDpT_EEENSA_IJDpT0_EEE', symObjAddr: 0x5FD4, symBinAddr: 0x100014388, symSize: 0x3C }
  - { offsetInCU: 0x1708D, offset: 0x412A8, size: 0x8, addend: 0x0, symName: '__ZNSt3__15tupleIJOZN5Enemy16initDecisionTreeEvE3$_2EEC1B8ue170006IJS2_ELi0EEEDpOT_', symObjAddr: 0x6010, symBinAddr: 0x1000143C4, symSize: 0x34 }
  - { offsetInCU: 0x170D7, offset: 0x412F2, size: 0x8, addend: 0x0, symName: '__ZNSt3__15tupleIJOZN5Enemy16initDecisionTreeEvE3$_2EEC2B8ue170006IJS2_ELi0EEEDpOT_', symObjAddr: 0x6044, symBinAddr: 0x1000143F8, symSize: 0x34 }
  - { offsetInCU: 0x17121, offset: 0x4133C, size: 0x8, addend: 0x0, symName: '__ZNSt3__112__tuple_implINS_15__tuple_indicesIJLm0EEEEJOZN5Enemy16initDecisionTreeEvE3$_2EEC1B8ue170006IJLm0EEJS5_EJEJEJS4_EEENS1_IJXspT_EEEENS_13__tuple_typesIJDpT0_EEENS1_IJXspT1_EEEENS9_IJDpT2_EEEDpOT3_', symObjAddr: 0x6078, symBinAddr: 0x10001442C, symSize: 0x34 }
  - { offsetInCU: 0x171B2, offset: 0x413CD, size: 0x8, addend: 0x0, symName: '__ZNSt3__112__tuple_implINS_15__tuple_indicesIJLm0EEEEJOZN5Enemy16initDecisionTreeEvE3$_2EEC2B8ue170006IJLm0EEJS5_EJEJEJS4_EEENS1_IJXspT_EEEENS_13__tuple_typesIJDpT0_EEENS1_IJXspT1_EEEENS9_IJDpT2_EEEDpOT3_', symObjAddr: 0x60AC, symBinAddr: 0x100014460, symSize: 0x34 }
  - { offsetInCU: 0x17243, offset: 0x4145E, size: 0x8, addend: 0x0, symName: '__ZNSt3__112__tuple_leafILm0EOZN5Enemy16initDecisionTreeEvE3$_2Lb0EEC2B8ue170006IS2_vEEOT_', symObjAddr: 0x60E0, symBinAddr: 0x100014494, symSize: 0x20 }
  - { offsetInCU: 0x17286, offset: 0x414A1, size: 0x8, addend: 0x0, symName: '__ZNSt3__15tupleIJONS_9allocatorIZN5Enemy16initDecisionTreeEvE3$_2EEEEC1B8ue170006IJS4_ELi0EEEDpOT_', symObjAddr: 0x6100, symBinAddr: 0x1000144B4, symSize: 0x34 }
  - { offsetInCU: 0x172D0, offset: 0x414EB, size: 0x8, addend: 0x0, symName: '__ZNSt3__15tupleIJONS_9allocatorIZN5Enemy16initDecisionTreeEvE3$_2EEEEC2B8ue170006IJS4_ELi0EEEDpOT_', symObjAddr: 0x6134, symBinAddr: 0x1000144E8, symSize: 0x34 }
  - { offsetInCU: 0x1731A, offset: 0x41535, size: 0x8, addend: 0x0, symName: '__ZNSt3__112__tuple_implINS_15__tuple_indicesIJLm0EEEEJONS_9allocatorIZN5Enemy16initDecisionTreeEvE3$_2EEEEC1B8ue170006IJLm0EEJS7_EJEJEJS6_EEENS1_IJXspT_EEEENS_13__tuple_typesIJDpT0_EEENS1_IJXspT1_EEEENSB_IJDpT2_EEEDpOT3_', symObjAddr: 0x6168, symBinAddr: 0x10001451C, symSize: 0x34 }
  - { offsetInCU: 0x173AB, offset: 0x415C6, size: 0x8, addend: 0x0, symName: '__ZNSt3__112__tuple_implINS_15__tuple_indicesIJLm0EEEEJONS_9allocatorIZN5Enemy16initDecisionTreeEvE3$_2EEEEC2B8ue170006IJLm0EEJS7_EJEJEJS6_EEENS1_IJXspT_EEEENS_13__tuple_typesIJDpT0_EEENS1_IJXspT1_EEEENSB_IJDpT2_EEEDpOT3_', symObjAddr: 0x619C, symBinAddr: 0x100014550, symSize: 0x34 }
  - { offsetInCU: 0x1743C, offset: 0x41657, size: 0x8, addend: 0x0, symName: '__ZNSt3__112__tuple_leafILm0EONS_9allocatorIZN5Enemy16initDecisionTreeEvE3$_2EELb0EEC2B8ue170006IS4_vEEOT_', symObjAddr: 0x61D0, symBinAddr: 0x100014584, symSize: 0x20 }
  - { offsetInCU: 0x1747F, offset: 0x4169A, size: 0x8, addend: 0x0, symName: '__ZNSt3__117__compressed_pairIZN5Enemy16initDecisionTreeEvE3$_2NS_9allocatorIS2_EEEC2B8ue170006IJOS2_EJOS4_EEENS_21piecewise_construct_tENS_5tupleIJDpT_EEENSA_IJDpT0_EEE', symObjAddr: 0x61F0, symBinAddr: 0x1000145A4, symSize: 0x54 }
  - { offsetInCU: 0x174E9, offset: 0x41704, size: 0x8, addend: 0x0, symName: '__ZNSt3__122__compressed_pair_elemIZN5Enemy16initDecisionTreeEvE3$_2Li0ELb0EEC2B8ue170006IJOS2_EJLm0EEEENS_21piecewise_construct_tENS_5tupleIJDpT_EEENS_15__tuple_indicesIJXspT0_EEEE', symObjAddr: 0x6244, symBinAddr: 0x1000145F8, symSize: 0x44 }
  - { offsetInCU: 0x1754E, offset: 0x41769, size: 0x8, addend: 0x0, symName: '__ZNSt3__122__compressed_pair_elemINS_9allocatorIZN5Enemy16initDecisionTreeEvE3$_2EELi1ELb1EEC2B8ue170006IJOS4_EJLm0EEEENS_21piecewise_construct_tENS_5tupleIJDpT_EEENS_15__tuple_indicesIJXspT0_EEEE', symObjAddr: 0x6288, symBinAddr: 0x10001463C, symSize: 0x38 }
  - { offsetInCU: 0x175B3, offset: 0x417CE, size: 0x8, addend: 0x0, symName: '__ZNSt3__112__tuple_leafILm0EOZN5Enemy16initDecisionTreeEvE3$_2Lb0EE3getB8ue170006Ev', symObjAddr: 0x62E4, symBinAddr: 0x100014698, symSize: 0x18 }
  - { offsetInCU: 0x175D9, offset: 0x417F4, size: 0x8, addend: 0x0, symName: '__ZNSt3__112__tuple_leafILm0EONS_9allocatorIZN5Enemy16initDecisionTreeEvE3$_2EELb0EE3getB8ue170006Ev', symObjAddr: 0x6320, symBinAddr: 0x1000146D4, symSize: 0x18 }
  - { offsetInCU: 0x175FF, offset: 0x4181A, size: 0x8, addend: 0x0, symName: '__ZNSt3__110__function6__funcIZN5Enemy16initDecisionTreeEvE3$_2NS_9allocatorIS3_EEFvvEED2Ev', symObjAddr: 0x6338, symBinAddr: 0x1000146EC, symSize: 0x2C }
  - { offsetInCU: 0x1762C, offset: 0x41847, size: 0x8, addend: 0x0, symName: '__ZNKSt3__110__function12__alloc_funcIZN5Enemy16initDecisionTreeEvE3$_2NS_9allocatorIS3_EEFvvEE15__get_allocatorB8ue170006Ev', symObjAddr: 0x6364, symBinAddr: 0x100014718, symSize: 0x24 }
  - { offsetInCU: 0x17652, offset: 0x4186D, size: 0x8, addend: 0x0, symName: '__ZNSt3__19allocatorINS_10__function6__funcIZN5Enemy16initDecisionTreeEvE3$_2NS0_IS4_EEFvvEEEE8allocateB8ue170006Em', symObjAddr: 0x6388, symBinAddr: 0x10001473C, symSize: 0x58 }
  - { offsetInCU: 0x17695, offset: 0x418B0, size: 0x8, addend: 0x0, symName: '__ZNSt3__122__allocator_destructorINS_9allocatorINS_10__function6__funcIZN5Enemy16initDecisionTreeEvE3$_2NS1_IS5_EEFvvEEEEEEC1B8ue170006ERS9_m', symObjAddr: 0x63E0, symBinAddr: 0x100014794, symSize: 0x3C }
  - { offsetInCU: 0x17767, offset: 0x41982, size: 0x8, addend: 0x0, symName: '__ZNSt3__110unique_ptrINS_10__function6__funcIZN5Enemy16initDecisionTreeEvE3$_2NS_9allocatorIS4_EEFvvEEENS_22__allocator_destructorINS5_IS8_EEEEEC1B8ue170006ILb1EvEEPS8_NS_16__dependent_typeINS_27__unique_ptr_deleter_sfinaeISB_EEXT_EE20__good_rval_ref_typeE', symObjAddr: 0x641C, symBinAddr: 0x1000147D0, symSize: 0x3C }
  - { offsetInCU: 0x177B8, offset: 0x419D3, size: 0x8, addend: 0x0, symName: '__ZNKSt3__110unique_ptrINS_10__function6__funcIZN5Enemy16initDecisionTreeEvE3$_2NS_9allocatorIS4_EEFvvEEENS_22__allocator_destructorINS5_IS8_EEEEE3getB8ue170006Ev', symObjAddr: 0x6458, symBinAddr: 0x10001480C, symSize: 0x28 }
  - { offsetInCU: 0x177DE, offset: 0x419F9, size: 0x8, addend: 0x0, symName: '__ZNKSt3__110__function12__alloc_funcIZN5Enemy16initDecisionTreeEvE3$_2NS_9allocatorIS3_EEFvvEE8__targetB8ue170006Ev', symObjAddr: 0x6480, symBinAddr: 0x100014834, symSize: 0x24 }
  - { offsetInCU: 0x17804, offset: 0x41A1F, size: 0x8, addend: 0x0, symName: '__ZNSt3__110__function6__funcIZN5Enemy16initDecisionTreeEvE3$_2NS_9allocatorIS3_EEFvvEEC1B8ue170006ERKS3_OS5_', symObjAddr: 0x64A4, symBinAddr: 0x100014858, symSize: 0x3C }
  - { offsetInCU: 0x1784C, offset: 0x41A67, size: 0x8, addend: 0x0, symName: '__ZNSt3__110unique_ptrINS_10__function6__funcIZN5Enemy16initDecisionTreeEvE3$_2NS_9allocatorIS4_EEFvvEEENS_22__allocator_destructorINS5_IS8_EEEEE7releaseB8ue170006Ev', symObjAddr: 0x64E0, symBinAddr: 0x100014894, symSize: 0x44 }
  - { offsetInCU: 0x17881, offset: 0x41A9C, size: 0x8, addend: 0x0, symName: '__ZNSt3__110unique_ptrINS_10__function6__funcIZN5Enemy16initDecisionTreeEvE3$_2NS_9allocatorIS4_EEFvvEEENS_22__allocator_destructorINS5_IS8_EEEEED1B8ue170006Ev', symObjAddr: 0x6524, symBinAddr: 0x1000148D8, symSize: 0x2C }
  - { offsetInCU: 0x178AB, offset: 0x41AC6, size: 0x8, addend: 0x0, symName: '__ZNKSt3__117__compressed_pairIZN5Enemy16initDecisionTreeEvE3$_2NS_9allocatorIS2_EEE6secondB8ue170006Ev', symObjAddr: 0x6550, symBinAddr: 0x100014904, symSize: 0x24 }
  - { offsetInCU: 0x178D1, offset: 0x41AEC, size: 0x8, addend: 0x0, symName: '__ZNKSt3__122__compressed_pair_elemINS_9allocatorIZN5Enemy16initDecisionTreeEvE3$_2EELi1ELb1EE5__getB8ue170006Ev', symObjAddr: 0x6574, symBinAddr: 0x100014928, symSize: 0x14 }
  - { offsetInCU: 0x17901, offset: 0x41B1C, size: 0x8, addend: 0x0, symName: '__ZNSt3__116allocator_traitsINS_9allocatorINS_10__function6__funcIZN5Enemy16initDecisionTreeEvE3$_2NS1_IS5_EEFvvEEEEEE8max_sizeB8ue170006IS9_vEEmRKS9_', symObjAddr: 0x6588, symBinAddr: 0x10001493C, symSize: 0x24 }
  - { offsetInCU: 0x1792F, offset: 0x41B4A, size: 0x8, addend: 0x0, symName: '__ZNKSt3__19allocatorINS_10__function6__funcIZN5Enemy16initDecisionTreeEvE3$_2NS0_IS4_EEFvvEEEE8max_sizeB8ue170006Ev', symObjAddr: 0x65AC, symBinAddr: 0x100014960, symSize: 0x14 }
  - { offsetInCU: 0x17955, offset: 0x41B70, size: 0x8, addend: 0x0, symName: '__ZNSt3__122__allocator_destructorINS_9allocatorINS_10__function6__funcIZN5Enemy16initDecisionTreeEvE3$_2NS1_IS5_EEFvvEEEEEEC2B8ue170006ERS9_m', symObjAddr: 0x65C0, symBinAddr: 0x100014974, symSize: 0x2C }
  - { offsetInCU: 0x1799B, offset: 0x41BB6, size: 0x8, addend: 0x0, symName: '__ZNSt3__110unique_ptrINS_10__function6__funcIZN5Enemy16initDecisionTreeEvE3$_2NS_9allocatorIS4_EEFvvEEENS_22__allocator_destructorINS5_IS8_EEEEEC2B8ue170006ILb1EvEEPS8_NS_16__dependent_typeINS_27__unique_ptr_deleter_sfinaeISB_EEXT_EE20__good_rval_ref_typeE', symObjAddr: 0x65EC, symBinAddr: 0x1000149A0, symSize: 0x48 }
  - { offsetInCU: 0x179EC, offset: 0x41C07, size: 0x8, addend: 0x0, symName: '__ZNSt3__117__compressed_pairIPNS_10__function6__funcIZN5Enemy16initDecisionTreeEvE3$_2NS_9allocatorIS4_EEFvvEEENS_22__allocator_destructorINS5_IS8_EEEEEC1B8ue170006IRS9_SC_EEOT_OT0_', symObjAddr: 0x6634, symBinAddr: 0x1000149E8, symSize: 0x3C }
  - { offsetInCU: 0x17A44, offset: 0x41C5F, size: 0x8, addend: 0x0, symName: '__ZNSt3__117__compressed_pairIPNS_10__function6__funcIZN5Enemy16initDecisionTreeEvE3$_2NS_9allocatorIS4_EEFvvEEENS_22__allocator_destructorINS5_IS8_EEEEEC2B8ue170006IRS9_SC_EEOT_OT0_', symObjAddr: 0x6670, symBinAddr: 0x100014A24, symSize: 0x48 }
  - { offsetInCU: 0x17A9C, offset: 0x41CB7, size: 0x8, addend: 0x0, symName: '__ZNSt3__122__compressed_pair_elemIPNS_10__function6__funcIZN5Enemy16initDecisionTreeEvE3$_2NS_9allocatorIS4_EEFvvEEELi0ELb0EEC2B8ue170006IRS9_vEEOT_', symObjAddr: 0x66B8, symBinAddr: 0x100014A6C, symSize: 0x24 }
  - { offsetInCU: 0x17ADE, offset: 0x41CF9, size: 0x8, addend: 0x0, symName: '__ZNSt3__122__compressed_pair_elemINS_22__allocator_destructorINS_9allocatorINS_10__function6__funcIZN5Enemy16initDecisionTreeEvE3$_2NS2_IS6_EEFvvEEEEEEELi1ELb0EEC2B8ue170006ISB_vEEOT_', symObjAddr: 0x66DC, symBinAddr: 0x100014A90, symSize: 0x24 }
  - { offsetInCU: 0x17B20, offset: 0x41D3B, size: 0x8, addend: 0x0, symName: '__ZNKSt3__117__compressed_pairIPNS_10__function6__funcIZN5Enemy16initDecisionTreeEvE3$_2NS_9allocatorIS4_EEFvvEEENS_22__allocator_destructorINS5_IS8_EEEEE5firstB8ue170006Ev', symObjAddr: 0x6700, symBinAddr: 0x100014AB4, symSize: 0x24 }
  - { offsetInCU: 0x17B46, offset: 0x41D61, size: 0x8, addend: 0x0, symName: '__ZNKSt3__122__compressed_pair_elemIPNS_10__function6__funcIZN5Enemy16initDecisionTreeEvE3$_2NS_9allocatorIS4_EEFvvEEELi0ELb0EE5__getB8ue170006Ev', symObjAddr: 0x6724, symBinAddr: 0x100014AD8, symSize: 0x14 }
  - { offsetInCU: 0x17B6C, offset: 0x41D87, size: 0x8, addend: 0x0, symName: '__ZNKSt3__117__compressed_pairIZN5Enemy16initDecisionTreeEvE3$_2NS_9allocatorIS2_EEE5firstB8ue170006Ev', symObjAddr: 0x6738, symBinAddr: 0x100014AEC, symSize: 0x24 }
  - { offsetInCU: 0x17B92, offset: 0x41DAD, size: 0x8, addend: 0x0, symName: '__ZNKSt3__122__compressed_pair_elemIZN5Enemy16initDecisionTreeEvE3$_2Li0ELb0EE5__getB8ue170006Ev', symObjAddr: 0x675C, symBinAddr: 0x100014B10, symSize: 0x14 }
  - { offsetInCU: 0x17BB8, offset: 0x41DD3, size: 0x8, addend: 0x0, symName: '__ZNSt3__110__function6__funcIZN5Enemy16initDecisionTreeEvE3$_2NS_9allocatorIS3_EEFvvEEC2B8ue170006ERKS3_OS5_', symObjAddr: 0x6770, symBinAddr: 0x100014B24, symSize: 0x88 }
  - { offsetInCU: 0x17C00, offset: 0x41E1B, size: 0x8, addend: 0x0, symName: '__ZNSt3__110__function12__alloc_funcIZN5Enemy16initDecisionTreeEvE3$_2NS_9allocatorIS3_EEFvvEEC1B8ue170006ERKS3_OS5_', symObjAddr: 0x67F8, symBinAddr: 0x100014BAC, symSize: 0x3C }
  - { offsetInCU: 0x17C46, offset: 0x41E61, size: 0x8, addend: 0x0, symName: '__ZNSt3__110__function12__alloc_funcIZN5Enemy16initDecisionTreeEvE3$_2NS_9allocatorIS3_EEFvvEEC2B8ue170006ERKS3_OS5_', symObjAddr: 0x6834, symBinAddr: 0x100014BE8, symSize: 0x5C }
  - { offsetInCU: 0x17C8C, offset: 0x41EA7, size: 0x8, addend: 0x0, symName: '__ZNSt3__117__compressed_pairIZN5Enemy16initDecisionTreeEvE3$_2NS_9allocatorIS2_EEEC1B8ue170006IJRKS2_EJOS4_EEENS_21piecewise_construct_tENS_5tupleIJDpT_EEENSB_IJDpT0_EEE', symObjAddr: 0x68BC, symBinAddr: 0x100014C70, symSize: 0x3C }
  - { offsetInCU: 0x17CF6, offset: 0x41F11, size: 0x8, addend: 0x0, symName: '__ZNSt3__15tupleIJRKZN5Enemy16initDecisionTreeEvE3$_2EEC1B8ue170006INS_4_AndELi0EEES4_', symObjAddr: 0x68F8, symBinAddr: 0x100014CAC, symSize: 0x34 }
  - { offsetInCU: 0x17D3F, offset: 0x41F5A, size: 0x8, addend: 0x0, symName: '__ZNSt3__15tupleIJRKZN5Enemy16initDecisionTreeEvE3$_2EEC2B8ue170006INS_4_AndELi0EEES4_', symObjAddr: 0x692C, symBinAddr: 0x100014CE0, symSize: 0x34 }
  - { offsetInCU: 0x17D88, offset: 0x41FA3, size: 0x8, addend: 0x0, symName: '__ZNSt3__112__tuple_implINS_15__tuple_indicesIJLm0EEEEJRKZN5Enemy16initDecisionTreeEvE3$_2EEC1B8ue170006IJLm0EEJS6_EJEJEJS6_EEENS1_IJXspT_EEEENS_13__tuple_typesIJDpT0_EEENS1_IJXspT1_EEEENSA_IJDpT2_EEEDpOT3_', symObjAddr: 0x6960, symBinAddr: 0x100014D14, symSize: 0x34 }
  - { offsetInCU: 0x17E19, offset: 0x42034, size: 0x8, addend: 0x0, symName: '__ZNSt3__112__tuple_implINS_15__tuple_indicesIJLm0EEEEJRKZN5Enemy16initDecisionTreeEvE3$_2EEC2B8ue170006IJLm0EEJS6_EJEJEJS6_EEENS1_IJXspT_EEEENS_13__tuple_typesIJDpT0_EEENS1_IJXspT1_EEEENSA_IJDpT2_EEEDpOT3_', symObjAddr: 0x6994, symBinAddr: 0x100014D48, symSize: 0x34 }
  - { offsetInCU: 0x17EAA, offset: 0x420C5, size: 0x8, addend: 0x0, symName: '__ZNSt3__112__tuple_leafILm0ERKZN5Enemy16initDecisionTreeEvE3$_2Lb0EEC2B8ue170006IS4_vEEOT_', symObjAddr: 0x69C8, symBinAddr: 0x100014D7C, symSize: 0x20 }
  - { offsetInCU: 0x17EED, offset: 0x42108, size: 0x8, addend: 0x0, symName: '__ZNSt3__117__compressed_pairIZN5Enemy16initDecisionTreeEvE3$_2NS_9allocatorIS2_EEEC2B8ue170006IJRKS2_EJOS4_EEENS_21piecewise_construct_tENS_5tupleIJDpT_EEENSB_IJDpT0_EEE', symObjAddr: 0x69E8, symBinAddr: 0x100014D9C, symSize: 0x54 }
  - { offsetInCU: 0x17F57, offset: 0x42172, size: 0x8, addend: 0x0, symName: '__ZNSt3__122__compressed_pair_elemIZN5Enemy16initDecisionTreeEvE3$_2Li0ELb0EEC2B8ue170006IJRKS2_EJLm0EEEENS_21piecewise_construct_tENS_5tupleIJDpT_EEENS_15__tuple_indicesIJXspT0_EEEE', symObjAddr: 0x6A3C, symBinAddr: 0x100014DF0, symSize: 0x44 }
  - { offsetInCU: 0x17FBC, offset: 0x421D7, size: 0x8, addend: 0x0, symName: '__ZNSt3__112__tuple_leafILm0ERKZN5Enemy16initDecisionTreeEvE3$_2Lb0EE3getB8ue170006Ev', symObjAddr: 0x6AA4, symBinAddr: 0x100014E58, symSize: 0x18 }
  - { offsetInCU: 0x17FE2, offset: 0x421FD, size: 0x8, addend: 0x0, symName: '__ZNSt3__117__compressed_pairIPNS_10__function6__funcIZN5Enemy16initDecisionTreeEvE3$_2NS_9allocatorIS4_EEFvvEEENS_22__allocator_destructorINS5_IS8_EEEEE5firstB8ue170006Ev', symObjAddr: 0x6ABC, symBinAddr: 0x100014E70, symSize: 0x24 }
  - { offsetInCU: 0x18008, offset: 0x42223, size: 0x8, addend: 0x0, symName: '__ZNSt3__122__compressed_pair_elemIPNS_10__function6__funcIZN5Enemy16initDecisionTreeEvE3$_2NS_9allocatorIS4_EEFvvEEELi0ELb0EE5__getB8ue170006Ev', symObjAddr: 0x6AE0, symBinAddr: 0x100014E94, symSize: 0x14 }
  - { offsetInCU: 0x1802E, offset: 0x42249, size: 0x8, addend: 0x0, symName: '__ZNSt3__110unique_ptrINS_10__function6__funcIZN5Enemy16initDecisionTreeEvE3$_2NS_9allocatorIS4_EEFvvEEENS_22__allocator_destructorINS5_IS8_EEEEED2B8ue170006Ev', symObjAddr: 0x6AF4, symBinAddr: 0x100014EA8, symSize: 0x30 }
  - { offsetInCU: 0x18058, offset: 0x42273, size: 0x8, addend: 0x0, symName: '__ZNSt3__110unique_ptrINS_10__function6__funcIZN5Enemy16initDecisionTreeEvE3$_2NS_9allocatorIS4_EEFvvEEENS_22__allocator_destructorINS5_IS8_EEEEE5resetB8ue170006EPS8_', symObjAddr: 0x6B24, symBinAddr: 0x100014ED8, symSize: 0x78 }
  - { offsetInCU: 0x1809C, offset: 0x422B7, size: 0x8, addend: 0x0, symName: '__ZNSt3__117__compressed_pairIPNS_10__function6__funcIZN5Enemy16initDecisionTreeEvE3$_2NS_9allocatorIS4_EEFvvEEENS_22__allocator_destructorINS5_IS8_EEEEE6secondB8ue170006Ev', symObjAddr: 0x6B9C, symBinAddr: 0x100014F50, symSize: 0x28 }
  - { offsetInCU: 0x180C2, offset: 0x422DD, size: 0x8, addend: 0x0, symName: '__ZNSt3__122__allocator_destructorINS_9allocatorINS_10__function6__funcIZN5Enemy16initDecisionTreeEvE3$_2NS1_IS5_EEFvvEEEEEEclB8ue170006EPS8_', symObjAddr: 0x6BC4, symBinAddr: 0x100014F78, symSize: 0x34 }
  - { offsetInCU: 0x180F6, offset: 0x42311, size: 0x8, addend: 0x0, symName: '__ZNSt3__122__compressed_pair_elemINS_22__allocator_destructorINS_9allocatorINS_10__function6__funcIZN5Enemy16initDecisionTreeEvE3$_2NS2_IS6_EEFvvEEEEEEELi1ELb0EE5__getB8ue170006Ev', symObjAddr: 0x6BF8, symBinAddr: 0x100014FAC, symSize: 0x14 }
  - { offsetInCU: 0x1811C, offset: 0x42337, size: 0x8, addend: 0x0, symName: '__ZNSt3__116allocator_traitsINS_9allocatorINS_10__function6__funcIZN5Enemy16initDecisionTreeEvE3$_2NS1_IS5_EEFvvEEEEEE10deallocateB8ue170006ERS9_PS8_m', symObjAddr: 0x6C0C, symBinAddr: 0x100014FC0, symSize: 0x34 }
  - { offsetInCU: 0x1815E, offset: 0x42379, size: 0x8, addend: 0x0, symName: '__ZNSt3__19allocatorINS_10__function6__funcIZN5Enemy16initDecisionTreeEvE3$_2NS0_IS4_EEFvvEEEE10deallocateB8ue170006EPS7_m', symObjAddr: 0x6C40, symBinAddr: 0x100014FF4, symSize: 0x40 }
  - { offsetInCU: 0x181A0, offset: 0x423BB, size: 0x8, addend: 0x0, symName: '__ZNSt3__110__function6__funcIZN5Enemy16initDecisionTreeEvE3$_2NS_9allocatorIS3_EEFvvEEC1B8ue170006ERKS3_RKS5_', symObjAddr: 0x6C80, symBinAddr: 0x100015034, symSize: 0x3C }
  - { offsetInCU: 0x181E8, offset: 0x42403, size: 0x8, addend: 0x0, symName: '__ZNSt3__110__function6__funcIZN5Enemy16initDecisionTreeEvE3$_2NS_9allocatorIS3_EEFvvEEC2B8ue170006ERKS3_RKS5_', symObjAddr: 0x6CBC, symBinAddr: 0x100015070, symSize: 0x88 }
  - { offsetInCU: 0x18230, offset: 0x4244B, size: 0x8, addend: 0x0, symName: '__ZNSt3__110__function12__alloc_funcIZN5Enemy16initDecisionTreeEvE3$_2NS_9allocatorIS3_EEFvvEEC1B8ue170006ERKS3_RKS5_', symObjAddr: 0x6D44, symBinAddr: 0x1000150F8, symSize: 0x3C }
  - { offsetInCU: 0x18276, offset: 0x42491, size: 0x8, addend: 0x0, symName: '__ZNSt3__110__function12__alloc_funcIZN5Enemy16initDecisionTreeEvE3$_2NS_9allocatorIS3_EEFvvEEC2B8ue170006ERKS3_RKS5_', symObjAddr: 0x6D80, symBinAddr: 0x100015134, symSize: 0x5C }
  - { offsetInCU: 0x182BC, offset: 0x424D7, size: 0x8, addend: 0x0, symName: '__ZNSt3__117__compressed_pairIZN5Enemy16initDecisionTreeEvE3$_2NS_9allocatorIS2_EEEC1B8ue170006IJRKS2_EJRKS4_EEENS_21piecewise_construct_tENS_5tupleIJDpT_EEENSC_IJDpT0_EEE', symObjAddr: 0x6E08, symBinAddr: 0x1000151BC, symSize: 0x3C }
  - { offsetInCU: 0x18326, offset: 0x42541, size: 0x8, addend: 0x0, symName: '__ZNSt3__15tupleIJRKNS_9allocatorIZN5Enemy16initDecisionTreeEvE3$_2EEEEC1B8ue170006INS_4_AndELi0EEES6_', symObjAddr: 0x6E44, symBinAddr: 0x1000151F8, symSize: 0x34 }
  - { offsetInCU: 0x1836F, offset: 0x4258A, size: 0x8, addend: 0x0, symName: '__ZNSt3__15tupleIJRKNS_9allocatorIZN5Enemy16initDecisionTreeEvE3$_2EEEEC2B8ue170006INS_4_AndELi0EEES6_', symObjAddr: 0x6E78, symBinAddr: 0x10001522C, symSize: 0x34 }
  - { offsetInCU: 0x183B8, offset: 0x425D3, size: 0x8, addend: 0x0, symName: '__ZNSt3__112__tuple_implINS_15__tuple_indicesIJLm0EEEEJRKNS_9allocatorIZN5Enemy16initDecisionTreeEvE3$_2EEEEC1B8ue170006IJLm0EEJS8_EJEJEJS8_EEENS1_IJXspT_EEEENS_13__tuple_typesIJDpT0_EEENS1_IJXspT1_EEEENSC_IJDpT2_EEEDpOT3_', symObjAddr: 0x6EAC, symBinAddr: 0x100015260, symSize: 0x34 }
  - { offsetInCU: 0x18449, offset: 0x42664, size: 0x8, addend: 0x0, symName: '__ZNSt3__112__tuple_implINS_15__tuple_indicesIJLm0EEEEJRKNS_9allocatorIZN5Enemy16initDecisionTreeEvE3$_2EEEEC2B8ue170006IJLm0EEJS8_EJEJEJS8_EEENS1_IJXspT_EEEENS_13__tuple_typesIJDpT0_EEENS1_IJXspT1_EEEENSC_IJDpT2_EEEDpOT3_', symObjAddr: 0x6EE0, symBinAddr: 0x100015294, symSize: 0x34 }
  - { offsetInCU: 0x184DA, offset: 0x426F5, size: 0x8, addend: 0x0, symName: '__ZNSt3__112__tuple_leafILm0ERKNS_9allocatorIZN5Enemy16initDecisionTreeEvE3$_2EELb0EEC2B8ue170006IS6_vEEOT_', symObjAddr: 0x6F14, symBinAddr: 0x1000152C8, symSize: 0x20 }
  - { offsetInCU: 0x1851D, offset: 0x42738, size: 0x8, addend: 0x0, symName: '__ZNSt3__117__compressed_pairIZN5Enemy16initDecisionTreeEvE3$_2NS_9allocatorIS2_EEEC2B8ue170006IJRKS2_EJRKS4_EEENS_21piecewise_construct_tENS_5tupleIJDpT_EEENSC_IJDpT0_EEE', symObjAddr: 0x6F34, symBinAddr: 0x1000152E8, symSize: 0x54 }
  - { offsetInCU: 0x18587, offset: 0x427A2, size: 0x8, addend: 0x0, symName: '__ZNSt3__122__compressed_pair_elemINS_9allocatorIZN5Enemy16initDecisionTreeEvE3$_2EELi1ELb1EEC2B8ue170006IJRKS4_EJLm0EEEENS_21piecewise_construct_tENS_5tupleIJDpT_EEENS_15__tuple_indicesIJXspT0_EEEE', symObjAddr: 0x6F88, symBinAddr: 0x10001533C, symSize: 0x38 }
  - { offsetInCU: 0x185EC, offset: 0x42807, size: 0x8, addend: 0x0, symName: '__ZNSt3__112__tuple_leafILm0ERKNS_9allocatorIZN5Enemy16initDecisionTreeEvE3$_2EELb0EE3getB8ue170006Ev', symObjAddr: 0x6FE4, symBinAddr: 0x100015398, symSize: 0x18 }
  - { offsetInCU: 0x18612, offset: 0x4282D, size: 0x8, addend: 0x0, symName: '__ZNSt3__110__function12__alloc_funcIZN5Enemy16initDecisionTreeEvE3$_2NS_9allocatorIS3_EEFvvEE7destroyB8ue170006Ev', symObjAddr: 0x6FFC, symBinAddr: 0x1000153B0, symSize: 0x10 }
  - { offsetInCU: 0x18638, offset: 0x42853, size: 0x8, addend: 0x0, symName: '__ZNSt3__110__function12__alloc_funcIZN5Enemy16initDecisionTreeEvE3$_2NS_9allocatorIS3_EEFvvEEclB8ue170006Ev', symObjAddr: 0x700C, symBinAddr: 0x1000153C0, symSize: 0x28 }
  - { offsetInCU: 0x1865E, offset: 0x42879, size: 0x8, addend: 0x0, symName: '__ZNSt3__128__invoke_void_return_wrapperIvLb1EE6__callB8ue170006IJRZN5Enemy16initDecisionTreeEvE3$_2EEEvDpOT_', symObjAddr: 0x7034, symBinAddr: 0x1000153E8, symSize: 0x24 }
  - { offsetInCU: 0x1868D, offset: 0x428A8, size: 0x8, addend: 0x0, symName: '__ZNSt3__117__compressed_pairIZN5Enemy16initDecisionTreeEvE3$_2NS_9allocatorIS2_EEE5firstB8ue170006Ev', symObjAddr: 0x7058, symBinAddr: 0x10001540C, symSize: 0x24 }
  - { offsetInCU: 0x186B8, offset: 0x428D3, size: 0x8, addend: 0x0, symName: '__ZZN5Enemy16initDecisionTreeEvENK3$_2clEv', symObjAddr: 0x70A0, symBinAddr: 0x100015454, symSize: 0x28 }
  - { offsetInCU: 0x186E2, offset: 0x428FD, size: 0x8, addend: 0x0, symName: '__ZNSt3__122__compressed_pair_elemIZN5Enemy16initDecisionTreeEvE3$_2Li0ELb0EE5__getB8ue170006Ev', symObjAddr: 0x70C8, symBinAddr: 0x10001547C, symSize: 0x14 }
  - { offsetInCU: 0x18708, offset: 0x42923, size: 0x8, addend: 0x0, symName: '__ZNSt3__18functionIFbvEEC2IZN5Enemy16initDecisionTreeEvE3$_3vEET_', symObjAddr: 0x70DC, symBinAddr: 0x100015490, symSize: 0x38 }
  - { offsetInCU: 0x1874D, offset: 0x42968, size: 0x8, addend: 0x0, symName: '__ZNSt3__110__function12__value_funcIFbvEEC1B8ue170006IZN5Enemy16initDecisionTreeEvE3$_3vEEOT_', symObjAddr: 0x7114, symBinAddr: 0x1000154C8, symSize: 0x50 }
  - { offsetInCU: 0x18790, offset: 0x429AB, size: 0x8, addend: 0x0, symName: '__ZNSt3__19allocatorIZN5Enemy16initDecisionTreeEvE3$_3EC1B8ue170006Ev', symObjAddr: 0x7164, symBinAddr: 0x100015518, symSize: 0x2C }
  - { offsetInCU: 0x187BA, offset: 0x429D5, size: 0x8, addend: 0x0, symName: '__ZNSt3__110__function12__value_funcIFbvEEC1B8ue170006IZN5Enemy16initDecisionTreeEvE3$_3NS_9allocatorIS6_EEEEOT_RKT0_', symObjAddr: 0x7190, symBinAddr: 0x100015544, symSize: 0x3C }
  - { offsetInCU: 0x18814, offset: 0x42A2F, size: 0x8, addend: 0x0, symName: '__ZNSt3__19allocatorIZN5Enemy16initDecisionTreeEvE3$_3EC2B8ue170006Ev', symObjAddr: 0x71CC, symBinAddr: 0x100015580, symSize: 0x2C }
  - { offsetInCU: 0x1883E, offset: 0x42A59, size: 0x8, addend: 0x0, symName: '__ZNSt3__116__non_trivial_ifILb1ENS_9allocatorIZN5Enemy16initDecisionTreeEvE3$_3EEEC2B8ue170006Ev', symObjAddr: 0x71F8, symBinAddr: 0x1000155AC, symSize: 0x14 }
  - { offsetInCU: 0x18868, offset: 0x42A83, size: 0x8, addend: 0x0, symName: '__ZNSt3__110__function12__value_funcIFbvEEC2B8ue170006IZN5Enemy16initDecisionTreeEvE3$_3NS_9allocatorIS6_EEEEOT_RKT0_', symObjAddr: 0x720C, symBinAddr: 0x1000155C0, symSize: 0x94 }
  - { offsetInCU: 0x1890E, offset: 0x42B29, size: 0x8, addend: 0x0, symName: '__ZNSt3__19allocatorINS_10__function6__funcIZN5Enemy16initDecisionTreeEvE3$_3NS0_IS4_EEFbvEEEEC1B8ue170006IS4_EERKNS0_IT_EE', symObjAddr: 0x72B8, symBinAddr: 0x10001566C, symSize: 0x34 }
  - { offsetInCU: 0x18951, offset: 0x42B6C, size: 0x8, addend: 0x0, symName: '__ZNSt3__19allocatorIZN5Enemy16initDecisionTreeEvE3$_3EC1B8ue170006INS_10__function6__funcIS2_S3_FbvEEEEERKNS0_IT_EE', symObjAddr: 0x72EC, symBinAddr: 0x1000156A0, symSize: 0x34 }
  - { offsetInCU: 0x1898F, offset: 0x42BAA, size: 0x8, addend: 0x0, symName: '__ZNSt3__110__function6__funcIZN5Enemy16initDecisionTreeEvE3$_3NS_9allocatorIS3_EEFbvEEC1B8ue170006EOS3_OS5_', symObjAddr: 0x7320, symBinAddr: 0x1000156D4, symSize: 0x3C }
  - { offsetInCU: 0x189D7, offset: 0x42BF2, size: 0x8, addend: 0x0, symName: '__ZNSt3__19allocatorINS_10__function6__funcIZN5Enemy16initDecisionTreeEvE3$_3NS0_IS4_EEFbvEEEEC2B8ue170006IS4_EERKNS0_IT_EE', symObjAddr: 0x735C, symBinAddr: 0x100015710, symSize: 0x30 }
  - { offsetInCU: 0x18A15, offset: 0x42C30, size: 0x8, addend: 0x0, symName: '__ZNSt3__116__non_trivial_ifILb1ENS_9allocatorINS_10__function6__funcIZN5Enemy16initDecisionTreeEvE3$_3NS1_IS5_EEFbvEEEEEEC2B8ue170006Ev', symObjAddr: 0x738C, symBinAddr: 0x100015740, symSize: 0x14 }
  - { offsetInCU: 0x18A3F, offset: 0x42C5A, size: 0x8, addend: 0x0, symName: '__ZNSt3__19allocatorIZN5Enemy16initDecisionTreeEvE3$_3EC2B8ue170006INS_10__function6__funcIS2_S3_FbvEEEEERKNS0_IT_EE', symObjAddr: 0x73A0, symBinAddr: 0x100015754, symSize: 0x30 }
  - { offsetInCU: 0x18A7D, offset: 0x42C98, size: 0x8, addend: 0x0, symName: '__ZNSt3__110__function6__funcIZN5Enemy16initDecisionTreeEvE3$_3NS_9allocatorIS3_EEFbvEEC2B8ue170006EOS3_OS5_', symObjAddr: 0x73D0, symBinAddr: 0x100015784, symSize: 0x88 }
  - { offsetInCU: 0x18AC5, offset: 0x42CE0, size: 0x8, addend: 0x0, symName: __ZNSt3__110__function6__baseIFbvEEC2B8ue170006Ev, symObjAddr: 0x7458, symBinAddr: 0x10001580C, symSize: 0x24 }
  - { offsetInCU: 0x18AEF, offset: 0x42D0A, size: 0x8, addend: 0x0, symName: '__ZNSt3__110__function12__alloc_funcIZN5Enemy16initDecisionTreeEvE3$_3NS_9allocatorIS3_EEFbvEEC1B8ue170006EOS3_OS5_', symObjAddr: 0x747C, symBinAddr: 0x100015830, symSize: 0x3C }
  - { offsetInCU: 0x18B35, offset: 0x42D50, size: 0x8, addend: 0x0, symName: __ZNSt3__110__function6__baseIFbvEED2Ev, symObjAddr: 0x74B8, symBinAddr: 0x10001586C, symSize: 0x14 }
  - { offsetInCU: 0x18B5F, offset: 0x42D7A, size: 0x8, addend: 0x0, symName: '__ZNSt3__110__function6__funcIZN5Enemy16initDecisionTreeEvE3$_3NS_9allocatorIS3_EEFbvEED1Ev', symObjAddr: 0x74CC, symBinAddr: 0x100015880, symSize: 0x2C }
  - { offsetInCU: 0x18B8C, offset: 0x42DA7, size: 0x8, addend: 0x0, symName: '__ZNSt3__110__function6__funcIZN5Enemy16initDecisionTreeEvE3$_3NS_9allocatorIS3_EEFbvEED0Ev', symObjAddr: 0x74F8, symBinAddr: 0x1000158AC, symSize: 0x30 }
  - { offsetInCU: 0x18BB9, offset: 0x42DD4, size: 0x8, addend: 0x0, symName: '__ZNKSt3__110__function6__funcIZN5Enemy16initDecisionTreeEvE3$_3NS_9allocatorIS3_EEFbvEE7__cloneEv', symObjAddr: 0x7528, symBinAddr: 0x1000158DC, symSize: 0xFC }
  - { offsetInCU: 0x18C0B, offset: 0x42E26, size: 0x8, addend: 0x0, symName: '__ZNKSt3__110__function6__funcIZN5Enemy16initDecisionTreeEvE3$_3NS_9allocatorIS3_EEFbvEE7__cloneEPNS0_6__baseIS6_EE', symObjAddr: 0x7624, symBinAddr: 0x1000159D8, symSize: 0x58 }
  - { offsetInCU: 0x18C42, offset: 0x42E5D, size: 0x8, addend: 0x0, symName: '__ZNSt3__110__function6__funcIZN5Enemy16initDecisionTreeEvE3$_3NS_9allocatorIS3_EEFbvEE7destroyEv', symObjAddr: 0x767C, symBinAddr: 0x100015A30, symSize: 0x28 }
  - { offsetInCU: 0x18C6A, offset: 0x42E85, size: 0x8, addend: 0x0, symName: '__ZNSt3__110__function6__funcIZN5Enemy16initDecisionTreeEvE3$_3NS_9allocatorIS3_EEFbvEE18destroy_deallocateEv', symObjAddr: 0x76A4, symBinAddr: 0x100015A58, symSize: 0x58 }
  - { offsetInCU: 0x18CAD, offset: 0x42EC8, size: 0x8, addend: 0x0, symName: '__ZNSt3__110__function6__funcIZN5Enemy16initDecisionTreeEvE3$_3NS_9allocatorIS3_EEFbvEEclEv', symObjAddr: 0x76FC, symBinAddr: 0x100015AB0, symSize: 0x2C }
  - { offsetInCU: 0x18CD5, offset: 0x42EF0, size: 0x8, addend: 0x0, symName: '__ZNKSt3__110__function6__funcIZN5Enemy16initDecisionTreeEvE3$_3NS_9allocatorIS3_EEFbvEE6targetERKSt9type_info', symObjAddr: 0x7728, symBinAddr: 0x100015ADC, symSize: 0x60 }
  - { offsetInCU: 0x18D0C, offset: 0x42F27, size: 0x8, addend: 0x0, symName: '__ZNKSt3__110__function6__funcIZN5Enemy16initDecisionTreeEvE3$_3NS_9allocatorIS3_EEFbvEE11target_typeEv', symObjAddr: 0x7788, symBinAddr: 0x100015B3C, symSize: 0x18 }
  - { offsetInCU: 0x18D34, offset: 0x42F4F, size: 0x8, addend: 0x0, symName: __ZNSt3__110__function6__baseIFbvEED1Ev, symObjAddr: 0x77A0, symBinAddr: 0x100015B54, symSize: 0x14 }
  - { offsetInCU: 0x18D5E, offset: 0x42F79, size: 0x8, addend: 0x0, symName: __ZNSt3__110__function6__baseIFbvEED0Ev, symObjAddr: 0x77B4, symBinAddr: 0x100015B68, symSize: 0xC }
  - { offsetInCU: 0x18D88, offset: 0x42FA3, size: 0x8, addend: 0x0, symName: '__ZNSt3__110__function12__alloc_funcIZN5Enemy16initDecisionTreeEvE3$_3NS_9allocatorIS3_EEFbvEEC2B8ue170006EOS3_OS5_', symObjAddr: 0x77C0, symBinAddr: 0x100015B74, symSize: 0x5C }
  - { offsetInCU: 0x18DCE, offset: 0x42FE9, size: 0x8, addend: 0x0, symName: '__ZNSt3__117__compressed_pairIZN5Enemy16initDecisionTreeEvE3$_3NS_9allocatorIS2_EEEC1B8ue170006IJOS2_EJOS4_EEENS_21piecewise_construct_tENS_5tupleIJDpT_EEENSA_IJDpT0_EEE', symObjAddr: 0x7874, symBinAddr: 0x100015C28, symSize: 0x3C }
  - { offsetInCU: 0x18E38, offset: 0x43053, size: 0x8, addend: 0x0, symName: '__ZNSt3__15tupleIJOZN5Enemy16initDecisionTreeEvE3$_3EEC1B8ue170006IJS2_ELi0EEEDpOT_', symObjAddr: 0x78B0, symBinAddr: 0x100015C64, symSize: 0x34 }
  - { offsetInCU: 0x18E82, offset: 0x4309D, size: 0x8, addend: 0x0, symName: '__ZNSt3__15tupleIJOZN5Enemy16initDecisionTreeEvE3$_3EEC2B8ue170006IJS2_ELi0EEEDpOT_', symObjAddr: 0x78E4, symBinAddr: 0x100015C98, symSize: 0x34 }
  - { offsetInCU: 0x18ECC, offset: 0x430E7, size: 0x8, addend: 0x0, symName: '__ZNSt3__112__tuple_implINS_15__tuple_indicesIJLm0EEEEJOZN5Enemy16initDecisionTreeEvE3$_3EEC1B8ue170006IJLm0EEJS5_EJEJEJS4_EEENS1_IJXspT_EEEENS_13__tuple_typesIJDpT0_EEENS1_IJXspT1_EEEENS9_IJDpT2_EEEDpOT3_', symObjAddr: 0x7918, symBinAddr: 0x100015CCC, symSize: 0x34 }
  - { offsetInCU: 0x18F5D, offset: 0x43178, size: 0x8, addend: 0x0, symName: '__ZNSt3__112__tuple_implINS_15__tuple_indicesIJLm0EEEEJOZN5Enemy16initDecisionTreeEvE3$_3EEC2B8ue170006IJLm0EEJS5_EJEJEJS4_EEENS1_IJXspT_EEEENS_13__tuple_typesIJDpT0_EEENS1_IJXspT1_EEEENS9_IJDpT2_EEEDpOT3_', symObjAddr: 0x794C, symBinAddr: 0x100015D00, symSize: 0x34 }
  - { offsetInCU: 0x18FEE, offset: 0x43209, size: 0x8, addend: 0x0, symName: '__ZNSt3__112__tuple_leafILm0EOZN5Enemy16initDecisionTreeEvE3$_3Lb0EEC2B8ue170006IS2_vEEOT_', symObjAddr: 0x7980, symBinAddr: 0x100015D34, symSize: 0x20 }
  - { offsetInCU: 0x19031, offset: 0x4324C, size: 0x8, addend: 0x0, symName: '__ZNSt3__15tupleIJONS_9allocatorIZN5Enemy16initDecisionTreeEvE3$_3EEEEC1B8ue170006IJS4_ELi0EEEDpOT_', symObjAddr: 0x79A0, symBinAddr: 0x100015D54, symSize: 0x34 }
  - { offsetInCU: 0x1907B, offset: 0x43296, size: 0x8, addend: 0x0, symName: '__ZNSt3__15tupleIJONS_9allocatorIZN5Enemy16initDecisionTreeEvE3$_3EEEEC2B8ue170006IJS4_ELi0EEEDpOT_', symObjAddr: 0x79D4, symBinAddr: 0x100015D88, symSize: 0x34 }
  - { offsetInCU: 0x190C5, offset: 0x432E0, size: 0x8, addend: 0x0, symName: '__ZNSt3__112__tuple_implINS_15__tuple_indicesIJLm0EEEEJONS_9allocatorIZN5Enemy16initDecisionTreeEvE3$_3EEEEC1B8ue170006IJLm0EEJS7_EJEJEJS6_EEENS1_IJXspT_EEEENS_13__tuple_typesIJDpT0_EEENS1_IJXspT1_EEEENSB_IJDpT2_EEEDpOT3_', symObjAddr: 0x7A08, symBinAddr: 0x100015DBC, symSize: 0x34 }
  - { offsetInCU: 0x19156, offset: 0x43371, size: 0x8, addend: 0x0, symName: '__ZNSt3__112__tuple_implINS_15__tuple_indicesIJLm0EEEEJONS_9allocatorIZN5Enemy16initDecisionTreeEvE3$_3EEEEC2B8ue170006IJLm0EEJS7_EJEJEJS6_EEENS1_IJXspT_EEEENS_13__tuple_typesIJDpT0_EEENS1_IJXspT1_EEEENSB_IJDpT2_EEEDpOT3_', symObjAddr: 0x7A3C, symBinAddr: 0x100015DF0, symSize: 0x34 }
  - { offsetInCU: 0x191E7, offset: 0x43402, size: 0x8, addend: 0x0, symName: '__ZNSt3__112__tuple_leafILm0EONS_9allocatorIZN5Enemy16initDecisionTreeEvE3$_3EELb0EEC2B8ue170006IS4_vEEOT_', symObjAddr: 0x7A70, symBinAddr: 0x100015E24, symSize: 0x20 }
  - { offsetInCU: 0x1922A, offset: 0x43445, size: 0x8, addend: 0x0, symName: '__ZNSt3__117__compressed_pairIZN5Enemy16initDecisionTreeEvE3$_3NS_9allocatorIS2_EEEC2B8ue170006IJOS2_EJOS4_EEENS_21piecewise_construct_tENS_5tupleIJDpT_EEENSA_IJDpT0_EEE', symObjAddr: 0x7A90, symBinAddr: 0x100015E44, symSize: 0x54 }
  - { offsetInCU: 0x19294, offset: 0x434AF, size: 0x8, addend: 0x0, symName: '__ZNSt3__122__compressed_pair_elemIZN5Enemy16initDecisionTreeEvE3$_3Li0ELb0EEC2B8ue170006IJOS2_EJLm0EEEENS_21piecewise_construct_tENS_5tupleIJDpT_EEENS_15__tuple_indicesIJXspT0_EEEE', symObjAddr: 0x7AE4, symBinAddr: 0x100015E98, symSize: 0x44 }
  - { offsetInCU: 0x192F9, offset: 0x43514, size: 0x8, addend: 0x0, symName: '__ZNSt3__122__compressed_pair_elemINS_9allocatorIZN5Enemy16initDecisionTreeEvE3$_3EELi1ELb1EEC2B8ue170006IJOS4_EJLm0EEEENS_21piecewise_construct_tENS_5tupleIJDpT_EEENS_15__tuple_indicesIJXspT0_EEEE', symObjAddr: 0x7B28, symBinAddr: 0x100015EDC, symSize: 0x38 }
  - { offsetInCU: 0x1935E, offset: 0x43579, size: 0x8, addend: 0x0, symName: '__ZNSt3__112__tuple_leafILm0EOZN5Enemy16initDecisionTreeEvE3$_3Lb0EE3getB8ue170006Ev', symObjAddr: 0x7B84, symBinAddr: 0x100015F38, symSize: 0x18 }
  - { offsetInCU: 0x19384, offset: 0x4359F, size: 0x8, addend: 0x0, symName: '__ZNSt3__112__tuple_leafILm0EONS_9allocatorIZN5Enemy16initDecisionTreeEvE3$_3EELb0EE3getB8ue170006Ev', symObjAddr: 0x7BC0, symBinAddr: 0x100015F74, symSize: 0x18 }
  - { offsetInCU: 0x193AA, offset: 0x435C5, size: 0x8, addend: 0x0, symName: '__ZNSt3__110__function6__funcIZN5Enemy16initDecisionTreeEvE3$_3NS_9allocatorIS3_EEFbvEED2Ev', symObjAddr: 0x7BD8, symBinAddr: 0x100015F8C, symSize: 0x2C }
  - { offsetInCU: 0x193D7, offset: 0x435F2, size: 0x8, addend: 0x0, symName: '__ZNKSt3__110__function12__alloc_funcIZN5Enemy16initDecisionTreeEvE3$_3NS_9allocatorIS3_EEFbvEE15__get_allocatorB8ue170006Ev', symObjAddr: 0x7C04, symBinAddr: 0x100015FB8, symSize: 0x24 }
  - { offsetInCU: 0x193FD, offset: 0x43618, size: 0x8, addend: 0x0, symName: '__ZNSt3__19allocatorINS_10__function6__funcIZN5Enemy16initDecisionTreeEvE3$_3NS0_IS4_EEFbvEEEE8allocateB8ue170006Em', symObjAddr: 0x7C28, symBinAddr: 0x100015FDC, symSize: 0x58 }
  - { offsetInCU: 0x19440, offset: 0x4365B, size: 0x8, addend: 0x0, symName: '__ZNSt3__122__allocator_destructorINS_9allocatorINS_10__function6__funcIZN5Enemy16initDecisionTreeEvE3$_3NS1_IS5_EEFbvEEEEEEC1B8ue170006ERS9_m', symObjAddr: 0x7C80, symBinAddr: 0x100016034, symSize: 0x3C }
  - { offsetInCU: 0x19512, offset: 0x4372D, size: 0x8, addend: 0x0, symName: '__ZNSt3__110unique_ptrINS_10__function6__funcIZN5Enemy16initDecisionTreeEvE3$_3NS_9allocatorIS4_EEFbvEEENS_22__allocator_destructorINS5_IS8_EEEEEC1B8ue170006ILb1EvEEPS8_NS_16__dependent_typeINS_27__unique_ptr_deleter_sfinaeISB_EEXT_EE20__good_rval_ref_typeE', symObjAddr: 0x7CBC, symBinAddr: 0x100016070, symSize: 0x3C }
  - { offsetInCU: 0x19563, offset: 0x4377E, size: 0x8, addend: 0x0, symName: '__ZNKSt3__110unique_ptrINS_10__function6__funcIZN5Enemy16initDecisionTreeEvE3$_3NS_9allocatorIS4_EEFbvEEENS_22__allocator_destructorINS5_IS8_EEEEE3getB8ue170006Ev', symObjAddr: 0x7CF8, symBinAddr: 0x1000160AC, symSize: 0x28 }
  - { offsetInCU: 0x19589, offset: 0x437A4, size: 0x8, addend: 0x0, symName: '__ZNKSt3__110__function12__alloc_funcIZN5Enemy16initDecisionTreeEvE3$_3NS_9allocatorIS3_EEFbvEE8__targetB8ue170006Ev', symObjAddr: 0x7D20, symBinAddr: 0x1000160D4, symSize: 0x24 }
  - { offsetInCU: 0x195AF, offset: 0x437CA, size: 0x8, addend: 0x0, symName: '__ZNSt3__110__function6__funcIZN5Enemy16initDecisionTreeEvE3$_3NS_9allocatorIS3_EEFbvEEC1B8ue170006ERKS3_OS5_', symObjAddr: 0x7D44, symBinAddr: 0x1000160F8, symSize: 0x3C }
  - { offsetInCU: 0x195F7, offset: 0x43812, size: 0x8, addend: 0x0, symName: '__ZNSt3__110unique_ptrINS_10__function6__funcIZN5Enemy16initDecisionTreeEvE3$_3NS_9allocatorIS4_EEFbvEEENS_22__allocator_destructorINS5_IS8_EEEEE7releaseB8ue170006Ev', symObjAddr: 0x7D80, symBinAddr: 0x100016134, symSize: 0x44 }
  - { offsetInCU: 0x1962C, offset: 0x43847, size: 0x8, addend: 0x0, symName: '__ZNSt3__110unique_ptrINS_10__function6__funcIZN5Enemy16initDecisionTreeEvE3$_3NS_9allocatorIS4_EEFbvEEENS_22__allocator_destructorINS5_IS8_EEEEED1B8ue170006Ev', symObjAddr: 0x7DC4, symBinAddr: 0x100016178, symSize: 0x2C }
  - { offsetInCU: 0x19656, offset: 0x43871, size: 0x8, addend: 0x0, symName: '__ZNKSt3__117__compressed_pairIZN5Enemy16initDecisionTreeEvE3$_3NS_9allocatorIS2_EEE6secondB8ue170006Ev', symObjAddr: 0x7DF0, symBinAddr: 0x1000161A4, symSize: 0x24 }
  - { offsetInCU: 0x1967C, offset: 0x43897, size: 0x8, addend: 0x0, symName: '__ZNKSt3__122__compressed_pair_elemINS_9allocatorIZN5Enemy16initDecisionTreeEvE3$_3EELi1ELb1EE5__getB8ue170006Ev', symObjAddr: 0x7E14, symBinAddr: 0x1000161C8, symSize: 0x14 }
  - { offsetInCU: 0x196AC, offset: 0x438C7, size: 0x8, addend: 0x0, symName: '__ZNSt3__116allocator_traitsINS_9allocatorINS_10__function6__funcIZN5Enemy16initDecisionTreeEvE3$_3NS1_IS5_EEFbvEEEEEE8max_sizeB8ue170006IS9_vEEmRKS9_', symObjAddr: 0x7E28, symBinAddr: 0x1000161DC, symSize: 0x24 }
  - { offsetInCU: 0x196DA, offset: 0x438F5, size: 0x8, addend: 0x0, symName: '__ZNKSt3__19allocatorINS_10__function6__funcIZN5Enemy16initDecisionTreeEvE3$_3NS0_IS4_EEFbvEEEE8max_sizeB8ue170006Ev', symObjAddr: 0x7E4C, symBinAddr: 0x100016200, symSize: 0x14 }
  - { offsetInCU: 0x19700, offset: 0x4391B, size: 0x8, addend: 0x0, symName: '__ZNSt3__122__allocator_destructorINS_9allocatorINS_10__function6__funcIZN5Enemy16initDecisionTreeEvE3$_3NS1_IS5_EEFbvEEEEEEC2B8ue170006ERS9_m', symObjAddr: 0x7E60, symBinAddr: 0x100016214, symSize: 0x2C }
  - { offsetInCU: 0x19746, offset: 0x43961, size: 0x8, addend: 0x0, symName: '__ZNSt3__110unique_ptrINS_10__function6__funcIZN5Enemy16initDecisionTreeEvE3$_3NS_9allocatorIS4_EEFbvEEENS_22__allocator_destructorINS5_IS8_EEEEEC2B8ue170006ILb1EvEEPS8_NS_16__dependent_typeINS_27__unique_ptr_deleter_sfinaeISB_EEXT_EE20__good_rval_ref_typeE', symObjAddr: 0x7E8C, symBinAddr: 0x100016240, symSize: 0x48 }
  - { offsetInCU: 0x19797, offset: 0x439B2, size: 0x8, addend: 0x0, symName: '__ZNSt3__117__compressed_pairIPNS_10__function6__funcIZN5Enemy16initDecisionTreeEvE3$_3NS_9allocatorIS4_EEFbvEEENS_22__allocator_destructorINS5_IS8_EEEEEC1B8ue170006IRS9_SC_EEOT_OT0_', symObjAddr: 0x7ED4, symBinAddr: 0x100016288, symSize: 0x3C }
  - { offsetInCU: 0x197EF, offset: 0x43A0A, size: 0x8, addend: 0x0, symName: '__ZNSt3__117__compressed_pairIPNS_10__function6__funcIZN5Enemy16initDecisionTreeEvE3$_3NS_9allocatorIS4_EEFbvEEENS_22__allocator_destructorINS5_IS8_EEEEEC2B8ue170006IRS9_SC_EEOT_OT0_', symObjAddr: 0x7F10, symBinAddr: 0x1000162C4, symSize: 0x48 }
  - { offsetInCU: 0x19847, offset: 0x43A62, size: 0x8, addend: 0x0, symName: '__ZNSt3__122__compressed_pair_elemIPNS_10__function6__funcIZN5Enemy16initDecisionTreeEvE3$_3NS_9allocatorIS4_EEFbvEEELi0ELb0EEC2B8ue170006IRS9_vEEOT_', symObjAddr: 0x7F58, symBinAddr: 0x10001630C, symSize: 0x24 }
  - { offsetInCU: 0x19889, offset: 0x43AA4, size: 0x8, addend: 0x0, symName: '__ZNSt3__122__compressed_pair_elemINS_22__allocator_destructorINS_9allocatorINS_10__function6__funcIZN5Enemy16initDecisionTreeEvE3$_3NS2_IS6_EEFbvEEEEEEELi1ELb0EEC2B8ue170006ISB_vEEOT_', symObjAddr: 0x7F7C, symBinAddr: 0x100016330, symSize: 0x24 }
  - { offsetInCU: 0x198CB, offset: 0x43AE6, size: 0x8, addend: 0x0, symName: '__ZNKSt3__117__compressed_pairIPNS_10__function6__funcIZN5Enemy16initDecisionTreeEvE3$_3NS_9allocatorIS4_EEFbvEEENS_22__allocator_destructorINS5_IS8_EEEEE5firstB8ue170006Ev', symObjAddr: 0x7FA0, symBinAddr: 0x100016354, symSize: 0x24 }
  - { offsetInCU: 0x198F1, offset: 0x43B0C, size: 0x8, addend: 0x0, symName: '__ZNKSt3__122__compressed_pair_elemIPNS_10__function6__funcIZN5Enemy16initDecisionTreeEvE3$_3NS_9allocatorIS4_EEFbvEEELi0ELb0EE5__getB8ue170006Ev', symObjAddr: 0x7FC4, symBinAddr: 0x100016378, symSize: 0x14 }
  - { offsetInCU: 0x19917, offset: 0x43B32, size: 0x8, addend: 0x0, symName: '__ZNKSt3__117__compressed_pairIZN5Enemy16initDecisionTreeEvE3$_3NS_9allocatorIS2_EEE5firstB8ue170006Ev', symObjAddr: 0x7FD8, symBinAddr: 0x10001638C, symSize: 0x24 }
  - { offsetInCU: 0x1993D, offset: 0x43B58, size: 0x8, addend: 0x0, symName: '__ZNKSt3__122__compressed_pair_elemIZN5Enemy16initDecisionTreeEvE3$_3Li0ELb0EE5__getB8ue170006Ev', symObjAddr: 0x7FFC, symBinAddr: 0x1000163B0, symSize: 0x14 }
  - { offsetInCU: 0x19963, offset: 0x43B7E, size: 0x8, addend: 0x0, symName: '__ZNSt3__110__function6__funcIZN5Enemy16initDecisionTreeEvE3$_3NS_9allocatorIS3_EEFbvEEC2B8ue170006ERKS3_OS5_', symObjAddr: 0x8010, symBinAddr: 0x1000163C4, symSize: 0x88 }
  - { offsetInCU: 0x199AB, offset: 0x43BC6, size: 0x8, addend: 0x0, symName: '__ZNSt3__110__function12__alloc_funcIZN5Enemy16initDecisionTreeEvE3$_3NS_9allocatorIS3_EEFbvEEC1B8ue170006ERKS3_OS5_', symObjAddr: 0x8098, symBinAddr: 0x10001644C, symSize: 0x3C }
  - { offsetInCU: 0x199F1, offset: 0x43C0C, size: 0x8, addend: 0x0, symName: '__ZNSt3__110__function12__alloc_funcIZN5Enemy16initDecisionTreeEvE3$_3NS_9allocatorIS3_EEFbvEEC2B8ue170006ERKS3_OS5_', symObjAddr: 0x80D4, symBinAddr: 0x100016488, symSize: 0x5C }
  - { offsetInCU: 0x19A37, offset: 0x43C52, size: 0x8, addend: 0x0, symName: '__ZNSt3__117__compressed_pairIZN5Enemy16initDecisionTreeEvE3$_3NS_9allocatorIS2_EEEC1B8ue170006IJRKS2_EJOS4_EEENS_21piecewise_construct_tENS_5tupleIJDpT_EEENSB_IJDpT0_EEE', symObjAddr: 0x815C, symBinAddr: 0x100016510, symSize: 0x3C }
  - { offsetInCU: 0x19AA1, offset: 0x43CBC, size: 0x8, addend: 0x0, symName: '__ZNSt3__15tupleIJRKZN5Enemy16initDecisionTreeEvE3$_3EEC1B8ue170006INS_4_AndELi0EEES4_', symObjAddr: 0x8198, symBinAddr: 0x10001654C, symSize: 0x34 }
  - { offsetInCU: 0x19AEA, offset: 0x43D05, size: 0x8, addend: 0x0, symName: '__ZNSt3__15tupleIJRKZN5Enemy16initDecisionTreeEvE3$_3EEC2B8ue170006INS_4_AndELi0EEES4_', symObjAddr: 0x81CC, symBinAddr: 0x100016580, symSize: 0x34 }
  - { offsetInCU: 0x19B33, offset: 0x43D4E, size: 0x8, addend: 0x0, symName: '__ZNSt3__112__tuple_implINS_15__tuple_indicesIJLm0EEEEJRKZN5Enemy16initDecisionTreeEvE3$_3EEC1B8ue170006IJLm0EEJS6_EJEJEJS6_EEENS1_IJXspT_EEEENS_13__tuple_typesIJDpT0_EEENS1_IJXspT1_EEEENSA_IJDpT2_EEEDpOT3_', symObjAddr: 0x8200, symBinAddr: 0x1000165B4, symSize: 0x34 }
  - { offsetInCU: 0x19BC4, offset: 0x43DDF, size: 0x8, addend: 0x0, symName: '__ZNSt3__112__tuple_implINS_15__tuple_indicesIJLm0EEEEJRKZN5Enemy16initDecisionTreeEvE3$_3EEC2B8ue170006IJLm0EEJS6_EJEJEJS6_EEENS1_IJXspT_EEEENS_13__tuple_typesIJDpT0_EEENS1_IJXspT1_EEEENSA_IJDpT2_EEEDpOT3_', symObjAddr: 0x8234, symBinAddr: 0x1000165E8, symSize: 0x34 }
  - { offsetInCU: 0x19C55, offset: 0x43E70, size: 0x8, addend: 0x0, symName: '__ZNSt3__112__tuple_leafILm0ERKZN5Enemy16initDecisionTreeEvE3$_3Lb0EEC2B8ue170006IS4_vEEOT_', symObjAddr: 0x8268, symBinAddr: 0x10001661C, symSize: 0x20 }
  - { offsetInCU: 0x19C98, offset: 0x43EB3, size: 0x8, addend: 0x0, symName: '__ZNSt3__117__compressed_pairIZN5Enemy16initDecisionTreeEvE3$_3NS_9allocatorIS2_EEEC2B8ue170006IJRKS2_EJOS4_EEENS_21piecewise_construct_tENS_5tupleIJDpT_EEENSB_IJDpT0_EEE', symObjAddr: 0x8288, symBinAddr: 0x10001663C, symSize: 0x54 }
  - { offsetInCU: 0x19D02, offset: 0x43F1D, size: 0x8, addend: 0x0, symName: '__ZNSt3__122__compressed_pair_elemIZN5Enemy16initDecisionTreeEvE3$_3Li0ELb0EEC2B8ue170006IJRKS2_EJLm0EEEENS_21piecewise_construct_tENS_5tupleIJDpT_EEENS_15__tuple_indicesIJXspT0_EEEE', symObjAddr: 0x82DC, symBinAddr: 0x100016690, symSize: 0x44 }
  - { offsetInCU: 0x19D67, offset: 0x43F82, size: 0x8, addend: 0x0, symName: '__ZNSt3__112__tuple_leafILm0ERKZN5Enemy16initDecisionTreeEvE3$_3Lb0EE3getB8ue170006Ev', symObjAddr: 0x8344, symBinAddr: 0x1000166F8, symSize: 0x18 }
  - { offsetInCU: 0x19D8D, offset: 0x43FA8, size: 0x8, addend: 0x0, symName: '__ZNSt3__117__compressed_pairIPNS_10__function6__funcIZN5Enemy16initDecisionTreeEvE3$_3NS_9allocatorIS4_EEFbvEEENS_22__allocator_destructorINS5_IS8_EEEEE5firstB8ue170006Ev', symObjAddr: 0x835C, symBinAddr: 0x100016710, symSize: 0x24 }
  - { offsetInCU: 0x19DB3, offset: 0x43FCE, size: 0x8, addend: 0x0, symName: '__ZNSt3__122__compressed_pair_elemIPNS_10__function6__funcIZN5Enemy16initDecisionTreeEvE3$_3NS_9allocatorIS4_EEFbvEEELi0ELb0EE5__getB8ue170006Ev', symObjAddr: 0x8380, symBinAddr: 0x100016734, symSize: 0x14 }
  - { offsetInCU: 0x19DD9, offset: 0x43FF4, size: 0x8, addend: 0x0, symName: '__ZNSt3__110unique_ptrINS_10__function6__funcIZN5Enemy16initDecisionTreeEvE3$_3NS_9allocatorIS4_EEFbvEEENS_22__allocator_destructorINS5_IS8_EEEEED2B8ue170006Ev', symObjAddr: 0x8394, symBinAddr: 0x100016748, symSize: 0x30 }
  - { offsetInCU: 0x19E03, offset: 0x4401E, size: 0x8, addend: 0x0, symName: '__ZNSt3__110unique_ptrINS_10__function6__funcIZN5Enemy16initDecisionTreeEvE3$_3NS_9allocatorIS4_EEFbvEEENS_22__allocator_destructorINS5_IS8_EEEEE5resetB8ue170006EPS8_', symObjAddr: 0x83C4, symBinAddr: 0x100016778, symSize: 0x78 }
  - { offsetInCU: 0x19E47, offset: 0x44062, size: 0x8, addend: 0x0, symName: '__ZNSt3__117__compressed_pairIPNS_10__function6__funcIZN5Enemy16initDecisionTreeEvE3$_3NS_9allocatorIS4_EEFbvEEENS_22__allocator_destructorINS5_IS8_EEEEE6secondB8ue170006Ev', symObjAddr: 0x843C, symBinAddr: 0x1000167F0, symSize: 0x28 }
  - { offsetInCU: 0x19E6D, offset: 0x44088, size: 0x8, addend: 0x0, symName: '__ZNSt3__122__allocator_destructorINS_9allocatorINS_10__function6__funcIZN5Enemy16initDecisionTreeEvE3$_3NS1_IS5_EEFbvEEEEEEclB8ue170006EPS8_', symObjAddr: 0x8464, symBinAddr: 0x100016818, symSize: 0x34 }
  - { offsetInCU: 0x19EA1, offset: 0x440BC, size: 0x8, addend: 0x0, symName: '__ZNSt3__122__compressed_pair_elemINS_22__allocator_destructorINS_9allocatorINS_10__function6__funcIZN5Enemy16initDecisionTreeEvE3$_3NS2_IS6_EEFbvEEEEEEELi1ELb0EE5__getB8ue170006Ev', symObjAddr: 0x8498, symBinAddr: 0x10001684C, symSize: 0x14 }
  - { offsetInCU: 0x19EC7, offset: 0x440E2, size: 0x8, addend: 0x0, symName: '__ZNSt3__116allocator_traitsINS_9allocatorINS_10__function6__funcIZN5Enemy16initDecisionTreeEvE3$_3NS1_IS5_EEFbvEEEEEE10deallocateB8ue170006ERS9_PS8_m', symObjAddr: 0x84AC, symBinAddr: 0x100016860, symSize: 0x34 }
  - { offsetInCU: 0x19F09, offset: 0x44124, size: 0x8, addend: 0x0, symName: '__ZNSt3__19allocatorINS_10__function6__funcIZN5Enemy16initDecisionTreeEvE3$_3NS0_IS4_EEFbvEEEE10deallocateB8ue170006EPS7_m', symObjAddr: 0x84E0, symBinAddr: 0x100016894, symSize: 0x40 }
  - { offsetInCU: 0x19F4B, offset: 0x44166, size: 0x8, addend: 0x0, symName: '__ZNSt3__110__function6__funcIZN5Enemy16initDecisionTreeEvE3$_3NS_9allocatorIS3_EEFbvEEC1B8ue170006ERKS3_RKS5_', symObjAddr: 0x8520, symBinAddr: 0x1000168D4, symSize: 0x3C }
  - { offsetInCU: 0x19F93, offset: 0x441AE, size: 0x8, addend: 0x0, symName: '__ZNSt3__110__function6__funcIZN5Enemy16initDecisionTreeEvE3$_3NS_9allocatorIS3_EEFbvEEC2B8ue170006ERKS3_RKS5_', symObjAddr: 0x855C, symBinAddr: 0x100016910, symSize: 0x88 }
  - { offsetInCU: 0x19FDB, offset: 0x441F6, size: 0x8, addend: 0x0, symName: '__ZNSt3__110__function12__alloc_funcIZN5Enemy16initDecisionTreeEvE3$_3NS_9allocatorIS3_EEFbvEEC1B8ue170006ERKS3_RKS5_', symObjAddr: 0x85E4, symBinAddr: 0x100016998, symSize: 0x3C }
  - { offsetInCU: 0x1A021, offset: 0x4423C, size: 0x8, addend: 0x0, symName: '__ZNSt3__110__function12__alloc_funcIZN5Enemy16initDecisionTreeEvE3$_3NS_9allocatorIS3_EEFbvEEC2B8ue170006ERKS3_RKS5_', symObjAddr: 0x8620, symBinAddr: 0x1000169D4, symSize: 0x5C }
  - { offsetInCU: 0x1A067, offset: 0x44282, size: 0x8, addend: 0x0, symName: '__ZNSt3__117__compressed_pairIZN5Enemy16initDecisionTreeEvE3$_3NS_9allocatorIS2_EEEC1B8ue170006IJRKS2_EJRKS4_EEENS_21piecewise_construct_tENS_5tupleIJDpT_EEENSC_IJDpT0_EEE', symObjAddr: 0x86A8, symBinAddr: 0x100016A5C, symSize: 0x3C }
  - { offsetInCU: 0x1A0D1, offset: 0x442EC, size: 0x8, addend: 0x0, symName: '__ZNSt3__15tupleIJRKNS_9allocatorIZN5Enemy16initDecisionTreeEvE3$_3EEEEC1B8ue170006INS_4_AndELi0EEES6_', symObjAddr: 0x86E4, symBinAddr: 0x100016A98, symSize: 0x34 }
  - { offsetInCU: 0x1A11A, offset: 0x44335, size: 0x8, addend: 0x0, symName: '__ZNSt3__15tupleIJRKNS_9allocatorIZN5Enemy16initDecisionTreeEvE3$_3EEEEC2B8ue170006INS_4_AndELi0EEES6_', symObjAddr: 0x8718, symBinAddr: 0x100016ACC, symSize: 0x34 }
  - { offsetInCU: 0x1A163, offset: 0x4437E, size: 0x8, addend: 0x0, symName: '__ZNSt3__112__tuple_implINS_15__tuple_indicesIJLm0EEEEJRKNS_9allocatorIZN5Enemy16initDecisionTreeEvE3$_3EEEEC1B8ue170006IJLm0EEJS8_EJEJEJS8_EEENS1_IJXspT_EEEENS_13__tuple_typesIJDpT0_EEENS1_IJXspT1_EEEENSC_IJDpT2_EEEDpOT3_', symObjAddr: 0x874C, symBinAddr: 0x100016B00, symSize: 0x34 }
  - { offsetInCU: 0x1A1F4, offset: 0x4440F, size: 0x8, addend: 0x0, symName: '__ZNSt3__112__tuple_implINS_15__tuple_indicesIJLm0EEEEJRKNS_9allocatorIZN5Enemy16initDecisionTreeEvE3$_3EEEEC2B8ue170006IJLm0EEJS8_EJEJEJS8_EEENS1_IJXspT_EEEENS_13__tuple_typesIJDpT0_EEENS1_IJXspT1_EEEENSC_IJDpT2_EEEDpOT3_', symObjAddr: 0x8780, symBinAddr: 0x100016B34, symSize: 0x34 }
  - { offsetInCU: 0x1A285, offset: 0x444A0, size: 0x8, addend: 0x0, symName: '__ZNSt3__112__tuple_leafILm0ERKNS_9allocatorIZN5Enemy16initDecisionTreeEvE3$_3EELb0EEC2B8ue170006IS6_vEEOT_', symObjAddr: 0x87B4, symBinAddr: 0x100016B68, symSize: 0x20 }
  - { offsetInCU: 0x1A2C8, offset: 0x444E3, size: 0x8, addend: 0x0, symName: '__ZNSt3__117__compressed_pairIZN5Enemy16initDecisionTreeEvE3$_3NS_9allocatorIS2_EEEC2B8ue170006IJRKS2_EJRKS4_EEENS_21piecewise_construct_tENS_5tupleIJDpT_EEENSC_IJDpT0_EEE', symObjAddr: 0x87D4, symBinAddr: 0x100016B88, symSize: 0x54 }
  - { offsetInCU: 0x1A332, offset: 0x4454D, size: 0x8, addend: 0x0, symName: '__ZNSt3__122__compressed_pair_elemINS_9allocatorIZN5Enemy16initDecisionTreeEvE3$_3EELi1ELb1EEC2B8ue170006IJRKS4_EJLm0EEEENS_21piecewise_construct_tENS_5tupleIJDpT_EEENS_15__tuple_indicesIJXspT0_EEEE', symObjAddr: 0x8828, symBinAddr: 0x100016BDC, symSize: 0x38 }
  - { offsetInCU: 0x1A397, offset: 0x445B2, size: 0x8, addend: 0x0, symName: '__ZNSt3__112__tuple_leafILm0ERKNS_9allocatorIZN5Enemy16initDecisionTreeEvE3$_3EELb0EE3getB8ue170006Ev', symObjAddr: 0x8884, symBinAddr: 0x100016C38, symSize: 0x18 }
  - { offsetInCU: 0x1A3BD, offset: 0x445D8, size: 0x8, addend: 0x0, symName: '__ZNSt3__110__function12__alloc_funcIZN5Enemy16initDecisionTreeEvE3$_3NS_9allocatorIS3_EEFbvEE7destroyB8ue170006Ev', symObjAddr: 0x889C, symBinAddr: 0x100016C50, symSize: 0x10 }
  - { offsetInCU: 0x1A3E3, offset: 0x445FE, size: 0x8, addend: 0x0, symName: '__ZNSt3__110__function12__alloc_funcIZN5Enemy16initDecisionTreeEvE3$_3NS_9allocatorIS3_EEFbvEEclB8ue170006Ev', symObjAddr: 0x88AC, symBinAddr: 0x100016C60, symSize: 0x2C }
  - { offsetInCU: 0x1A409, offset: 0x44624, size: 0x8, addend: 0x0, symName: '__ZNSt3__128__invoke_void_return_wrapperIbLb0EE6__callB8ue170006IJRZN5Enemy16initDecisionTreeEvE3$_3EEEbDpOT_', symObjAddr: 0x88D8, symBinAddr: 0x100016C8C, symSize: 0x28 }
  - { offsetInCU: 0x1A438, offset: 0x44653, size: 0x8, addend: 0x0, symName: '__ZNSt3__117__compressed_pairIZN5Enemy16initDecisionTreeEvE3$_3NS_9allocatorIS2_EEE5firstB8ue170006Ev', symObjAddr: 0x8900, symBinAddr: 0x100016CB4, symSize: 0x24 }
  - { offsetInCU: 0x1A463, offset: 0x4467E, size: 0x8, addend: 0x0, symName: '__ZZN5Enemy16initDecisionTreeEvENK3$_3clEv', symObjAddr: 0x894C, symBinAddr: 0x100016D00, symSize: 0x2C }
  - { offsetInCU: 0x1A48D, offset: 0x446A8, size: 0x8, addend: 0x0, symName: '__ZNSt3__122__compressed_pair_elemIZN5Enemy16initDecisionTreeEvE3$_3Li0ELb0EE5__getB8ue170006Ev', symObjAddr: 0x8978, symBinAddr: 0x100016D2C, symSize: 0x14 }
  - { offsetInCU: 0x1A4B3, offset: 0x446CE, size: 0x8, addend: 0x0, symName: '__ZNSt3__18functionIFbvEEC2IZN5Enemy16initDecisionTreeEvE3$_4vEET_', symObjAddr: 0x8A74, symBinAddr: 0x100016D40, symSize: 0x38 }
  - { offsetInCU: 0x1A4F8, offset: 0x44713, size: 0x8, addend: 0x0, symName: '__ZNSt3__110__function12__value_funcIFbvEEC1B8ue170006IZN5Enemy16initDecisionTreeEvE3$_4vEEOT_', symObjAddr: 0x8AAC, symBinAddr: 0x100016D78, symSize: 0x50 }
  - { offsetInCU: 0x1A53B, offset: 0x44756, size: 0x8, addend: 0x0, symName: '__ZNSt3__19allocatorIZN5Enemy16initDecisionTreeEvE3$_4EC1B8ue170006Ev', symObjAddr: 0x8AFC, symBinAddr: 0x100016DC8, symSize: 0x2C }
  - { offsetInCU: 0x1A565, offset: 0x44780, size: 0x8, addend: 0x0, symName: '__ZNSt3__110__function12__value_funcIFbvEEC1B8ue170006IZN5Enemy16initDecisionTreeEvE3$_4NS_9allocatorIS6_EEEEOT_RKT0_', symObjAddr: 0x8B28, symBinAddr: 0x100016DF4, symSize: 0x3C }
  - { offsetInCU: 0x1A5BF, offset: 0x447DA, size: 0x8, addend: 0x0, symName: '__ZNSt3__19allocatorIZN5Enemy16initDecisionTreeEvE3$_4EC2B8ue170006Ev', symObjAddr: 0x8B64, symBinAddr: 0x100016E30, symSize: 0x2C }
  - { offsetInCU: 0x1A5E9, offset: 0x44804, size: 0x8, addend: 0x0, symName: '__ZNSt3__116__non_trivial_ifILb1ENS_9allocatorIZN5Enemy16initDecisionTreeEvE3$_4EEEC2B8ue170006Ev', symObjAddr: 0x8B90, symBinAddr: 0x100016E5C, symSize: 0x14 }
  - { offsetInCU: 0x1A613, offset: 0x4482E, size: 0x8, addend: 0x0, symName: '__ZNSt3__110__function12__value_funcIFbvEEC2B8ue170006IZN5Enemy16initDecisionTreeEvE3$_4NS_9allocatorIS6_EEEEOT_RKT0_', symObjAddr: 0x8BA4, symBinAddr: 0x100016E70, symSize: 0x94 }
  - { offsetInCU: 0x1A6B9, offset: 0x448D4, size: 0x8, addend: 0x0, symName: '__ZNSt3__19allocatorINS_10__function6__funcIZN5Enemy16initDecisionTreeEvE3$_4NS0_IS4_EEFbvEEEEC1B8ue170006IS4_EERKNS0_IT_EE', symObjAddr: 0x8C50, symBinAddr: 0x100016F1C, symSize: 0x34 }
  - { offsetInCU: 0x1A6FC, offset: 0x44917, size: 0x8, addend: 0x0, symName: '__ZNSt3__19allocatorIZN5Enemy16initDecisionTreeEvE3$_4EC1B8ue170006INS_10__function6__funcIS2_S3_FbvEEEEERKNS0_IT_EE', symObjAddr: 0x8C84, symBinAddr: 0x100016F50, symSize: 0x34 }
  - { offsetInCU: 0x1A73A, offset: 0x44955, size: 0x8, addend: 0x0, symName: '__ZNSt3__110__function6__funcIZN5Enemy16initDecisionTreeEvE3$_4NS_9allocatorIS3_EEFbvEEC1B8ue170006EOS3_OS5_', symObjAddr: 0x8CB8, symBinAddr: 0x100016F84, symSize: 0x3C }
  - { offsetInCU: 0x1A782, offset: 0x4499D, size: 0x8, addend: 0x0, symName: '__ZNSt3__19allocatorINS_10__function6__funcIZN5Enemy16initDecisionTreeEvE3$_4NS0_IS4_EEFbvEEEEC2B8ue170006IS4_EERKNS0_IT_EE', symObjAddr: 0x8CF4, symBinAddr: 0x100016FC0, symSize: 0x30 }
  - { offsetInCU: 0x1A7C0, offset: 0x449DB, size: 0x8, addend: 0x0, symName: '__ZNSt3__116__non_trivial_ifILb1ENS_9allocatorINS_10__function6__funcIZN5Enemy16initDecisionTreeEvE3$_4NS1_IS5_EEFbvEEEEEEC2B8ue170006Ev', symObjAddr: 0x8D24, symBinAddr: 0x100016FF0, symSize: 0x14 }
  - { offsetInCU: 0x1A7EA, offset: 0x44A05, size: 0x8, addend: 0x0, symName: '__ZNSt3__19allocatorIZN5Enemy16initDecisionTreeEvE3$_4EC2B8ue170006INS_10__function6__funcIS2_S3_FbvEEEEERKNS0_IT_EE', symObjAddr: 0x8D38, symBinAddr: 0x100017004, symSize: 0x30 }
  - { offsetInCU: 0x1A828, offset: 0x44A43, size: 0x8, addend: 0x0, symName: '__ZNSt3__110__function6__funcIZN5Enemy16initDecisionTreeEvE3$_4NS_9allocatorIS3_EEFbvEEC2B8ue170006EOS3_OS5_', symObjAddr: 0x8D68, symBinAddr: 0x100017034, symSize: 0x88 }
  - { offsetInCU: 0x1A870, offset: 0x44A8B, size: 0x8, addend: 0x0, symName: '__ZNSt3__110__function12__alloc_funcIZN5Enemy16initDecisionTreeEvE3$_4NS_9allocatorIS3_EEFbvEEC1B8ue170006EOS3_OS5_', symObjAddr: 0x8DF0, symBinAddr: 0x1000170BC, symSize: 0x3C }
  - { offsetInCU: 0x1A8B6, offset: 0x44AD1, size: 0x8, addend: 0x0, symName: '__ZNSt3__110__function6__funcIZN5Enemy16initDecisionTreeEvE3$_4NS_9allocatorIS3_EEFbvEED1Ev', symObjAddr: 0x8E2C, symBinAddr: 0x1000170F8, symSize: 0x2C }
  - { offsetInCU: 0x1A8E3, offset: 0x44AFE, size: 0x8, addend: 0x0, symName: '__ZNSt3__110__function6__funcIZN5Enemy16initDecisionTreeEvE3$_4NS_9allocatorIS3_EEFbvEED0Ev', symObjAddr: 0x8E58, symBinAddr: 0x100017124, symSize: 0x30 }
  - { offsetInCU: 0x1A910, offset: 0x44B2B, size: 0x8, addend: 0x0, symName: '__ZNKSt3__110__function6__funcIZN5Enemy16initDecisionTreeEvE3$_4NS_9allocatorIS3_EEFbvEE7__cloneEv', symObjAddr: 0x8E88, symBinAddr: 0x100017154, symSize: 0xFC }
  - { offsetInCU: 0x1A962, offset: 0x44B7D, size: 0x8, addend: 0x0, symName: '__ZNKSt3__110__function6__funcIZN5Enemy16initDecisionTreeEvE3$_4NS_9allocatorIS3_EEFbvEE7__cloneEPNS0_6__baseIS6_EE', symObjAddr: 0x8F84, symBinAddr: 0x100017250, symSize: 0x58 }
  - { offsetInCU: 0x1A999, offset: 0x44BB4, size: 0x8, addend: 0x0, symName: '__ZNSt3__110__function6__funcIZN5Enemy16initDecisionTreeEvE3$_4NS_9allocatorIS3_EEFbvEE7destroyEv', symObjAddr: 0x8FDC, symBinAddr: 0x1000172A8, symSize: 0x28 }
  - { offsetInCU: 0x1A9C1, offset: 0x44BDC, size: 0x8, addend: 0x0, symName: '__ZNSt3__110__function6__funcIZN5Enemy16initDecisionTreeEvE3$_4NS_9allocatorIS3_EEFbvEE18destroy_deallocateEv', symObjAddr: 0x9004, symBinAddr: 0x1000172D0, symSize: 0x58 }
  - { offsetInCU: 0x1AA04, offset: 0x44C1F, size: 0x8, addend: 0x0, symName: '__ZNSt3__110__function6__funcIZN5Enemy16initDecisionTreeEvE3$_4NS_9allocatorIS3_EEFbvEEclEv', symObjAddr: 0x905C, symBinAddr: 0x100017328, symSize: 0x2C }
  - { offsetInCU: 0x1AA2C, offset: 0x44C47, size: 0x8, addend: 0x0, symName: '__ZNKSt3__110__function6__funcIZN5Enemy16initDecisionTreeEvE3$_4NS_9allocatorIS3_EEFbvEE6targetERKSt9type_info', symObjAddr: 0x9088, symBinAddr: 0x100017354, symSize: 0x60 }
  - { offsetInCU: 0x1AA63, offset: 0x44C7E, size: 0x8, addend: 0x0, symName: '__ZNKSt3__110__function6__funcIZN5Enemy16initDecisionTreeEvE3$_4NS_9allocatorIS3_EEFbvEE11target_typeEv', symObjAddr: 0x90E8, symBinAddr: 0x1000173B4, symSize: 0x18 }
  - { offsetInCU: 0x1AA8B, offset: 0x44CA6, size: 0x8, addend: 0x0, symName: '__ZNSt3__110__function12__alloc_funcIZN5Enemy16initDecisionTreeEvE3$_4NS_9allocatorIS3_EEFbvEEC2B8ue170006EOS3_OS5_', symObjAddr: 0x9100, symBinAddr: 0x1000173CC, symSize: 0x5C }
  - { offsetInCU: 0x1AAD1, offset: 0x44CEC, size: 0x8, addend: 0x0, symName: '__ZNSt3__117__compressed_pairIZN5Enemy16initDecisionTreeEvE3$_4NS_9allocatorIS2_EEEC1B8ue170006IJOS2_EJOS4_EEENS_21piecewise_construct_tENS_5tupleIJDpT_EEENSA_IJDpT0_EEE', symObjAddr: 0x91B4, symBinAddr: 0x100017480, symSize: 0x3C }
  - { offsetInCU: 0x1AB3B, offset: 0x44D56, size: 0x8, addend: 0x0, symName: '__ZNSt3__15tupleIJOZN5Enemy16initDecisionTreeEvE3$_4EEC1B8ue170006IJS2_ELi0EEEDpOT_', symObjAddr: 0x91F0, symBinAddr: 0x1000174BC, symSize: 0x34 }
  - { offsetInCU: 0x1AB85, offset: 0x44DA0, size: 0x8, addend: 0x0, symName: '__ZNSt3__15tupleIJOZN5Enemy16initDecisionTreeEvE3$_4EEC2B8ue170006IJS2_ELi0EEEDpOT_', symObjAddr: 0x9224, symBinAddr: 0x1000174F0, symSize: 0x34 }
  - { offsetInCU: 0x1ABCF, offset: 0x44DEA, size: 0x8, addend: 0x0, symName: '__ZNSt3__112__tuple_implINS_15__tuple_indicesIJLm0EEEEJOZN5Enemy16initDecisionTreeEvE3$_4EEC1B8ue170006IJLm0EEJS5_EJEJEJS4_EEENS1_IJXspT_EEEENS_13__tuple_typesIJDpT0_EEENS1_IJXspT1_EEEENS9_IJDpT2_EEEDpOT3_', symObjAddr: 0x9258, symBinAddr: 0x100017524, symSize: 0x34 }
  - { offsetInCU: 0x1AC60, offset: 0x44E7B, size: 0x8, addend: 0x0, symName: '__ZNSt3__112__tuple_implINS_15__tuple_indicesIJLm0EEEEJOZN5Enemy16initDecisionTreeEvE3$_4EEC2B8ue170006IJLm0EEJS5_EJEJEJS4_EEENS1_IJXspT_EEEENS_13__tuple_typesIJDpT0_EEENS1_IJXspT1_EEEENS9_IJDpT2_EEEDpOT3_', symObjAddr: 0x928C, symBinAddr: 0x100017558, symSize: 0x34 }
  - { offsetInCU: 0x1ACF1, offset: 0x44F0C, size: 0x8, addend: 0x0, symName: '__ZNSt3__112__tuple_leafILm0EOZN5Enemy16initDecisionTreeEvE3$_4Lb0EEC2B8ue170006IS2_vEEOT_', symObjAddr: 0x92C0, symBinAddr: 0x10001758C, symSize: 0x20 }
  - { offsetInCU: 0x1AD34, offset: 0x44F4F, size: 0x8, addend: 0x0, symName: '__ZNSt3__15tupleIJONS_9allocatorIZN5Enemy16initDecisionTreeEvE3$_4EEEEC1B8ue170006IJS4_ELi0EEEDpOT_', symObjAddr: 0x92E0, symBinAddr: 0x1000175AC, symSize: 0x34 }
  - { offsetInCU: 0x1AD7E, offset: 0x44F99, size: 0x8, addend: 0x0, symName: '__ZNSt3__15tupleIJONS_9allocatorIZN5Enemy16initDecisionTreeEvE3$_4EEEEC2B8ue170006IJS4_ELi0EEEDpOT_', symObjAddr: 0x9314, symBinAddr: 0x1000175E0, symSize: 0x34 }
  - { offsetInCU: 0x1ADC8, offset: 0x44FE3, size: 0x8, addend: 0x0, symName: '__ZNSt3__112__tuple_implINS_15__tuple_indicesIJLm0EEEEJONS_9allocatorIZN5Enemy16initDecisionTreeEvE3$_4EEEEC1B8ue170006IJLm0EEJS7_EJEJEJS6_EEENS1_IJXspT_EEEENS_13__tuple_typesIJDpT0_EEENS1_IJXspT1_EEEENSB_IJDpT2_EEEDpOT3_', symObjAddr: 0x9348, symBinAddr: 0x100017614, symSize: 0x34 }
  - { offsetInCU: 0x1AE59, offset: 0x45074, size: 0x8, addend: 0x0, symName: '__ZNSt3__112__tuple_implINS_15__tuple_indicesIJLm0EEEEJONS_9allocatorIZN5Enemy16initDecisionTreeEvE3$_4EEEEC2B8ue170006IJLm0EEJS7_EJEJEJS6_EEENS1_IJXspT_EEEENS_13__tuple_typesIJDpT0_EEENS1_IJXspT1_EEEENSB_IJDpT2_EEEDpOT3_', symObjAddr: 0x937C, symBinAddr: 0x100017648, symSize: 0x34 }
  - { offsetInCU: 0x1AEEA, offset: 0x45105, size: 0x8, addend: 0x0, symName: '__ZNSt3__112__tuple_leafILm0EONS_9allocatorIZN5Enemy16initDecisionTreeEvE3$_4EELb0EEC2B8ue170006IS4_vEEOT_', symObjAddr: 0x93B0, symBinAddr: 0x10001767C, symSize: 0x20 }
  - { offsetInCU: 0x1AF2D, offset: 0x45148, size: 0x8, addend: 0x0, symName: '__ZNSt3__117__compressed_pairIZN5Enemy16initDecisionTreeEvE3$_4NS_9allocatorIS2_EEEC2B8ue170006IJOS2_EJOS4_EEENS_21piecewise_construct_tENS_5tupleIJDpT_EEENSA_IJDpT0_EEE', symObjAddr: 0x93D0, symBinAddr: 0x10001769C, symSize: 0x54 }
  - { offsetInCU: 0x1AF97, offset: 0x451B2, size: 0x8, addend: 0x0, symName: '__ZNSt3__122__compressed_pair_elemIZN5Enemy16initDecisionTreeEvE3$_4Li0ELb0EEC2B8ue170006IJOS2_EJLm0EEEENS_21piecewise_construct_tENS_5tupleIJDpT_EEENS_15__tuple_indicesIJXspT0_EEEE', symObjAddr: 0x9424, symBinAddr: 0x1000176F0, symSize: 0x44 }
  - { offsetInCU: 0x1AFFC, offset: 0x45217, size: 0x8, addend: 0x0, symName: '__ZNSt3__122__compressed_pair_elemINS_9allocatorIZN5Enemy16initDecisionTreeEvE3$_4EELi1ELb1EEC2B8ue170006IJOS4_EJLm0EEEENS_21piecewise_construct_tENS_5tupleIJDpT_EEENS_15__tuple_indicesIJXspT0_EEEE', symObjAddr: 0x9468, symBinAddr: 0x100017734, symSize: 0x38 }
  - { offsetInCU: 0x1B061, offset: 0x4527C, size: 0x8, addend: 0x0, symName: '__ZNSt3__112__tuple_leafILm0EOZN5Enemy16initDecisionTreeEvE3$_4Lb0EE3getB8ue170006Ev', symObjAddr: 0x94C4, symBinAddr: 0x100017790, symSize: 0x18 }
  - { offsetInCU: 0x1B087, offset: 0x452A2, size: 0x8, addend: 0x0, symName: '__ZNSt3__112__tuple_leafILm0EONS_9allocatorIZN5Enemy16initDecisionTreeEvE3$_4EELb0EE3getB8ue170006Ev', symObjAddr: 0x9500, symBinAddr: 0x1000177CC, symSize: 0x18 }
  - { offsetInCU: 0x1B0AD, offset: 0x452C8, size: 0x8, addend: 0x0, symName: '__ZNSt3__110__function6__funcIZN5Enemy16initDecisionTreeEvE3$_4NS_9allocatorIS3_EEFbvEED2Ev', symObjAddr: 0x9518, symBinAddr: 0x1000177E4, symSize: 0x2C }
  - { offsetInCU: 0x1B0DA, offset: 0x452F5, size: 0x8, addend: 0x0, symName: '__ZNKSt3__110__function12__alloc_funcIZN5Enemy16initDecisionTreeEvE3$_4NS_9allocatorIS3_EEFbvEE15__get_allocatorB8ue170006Ev', symObjAddr: 0x9544, symBinAddr: 0x100017810, symSize: 0x24 }
  - { offsetInCU: 0x1B100, offset: 0x4531B, size: 0x8, addend: 0x0, symName: '__ZNSt3__19allocatorINS_10__function6__funcIZN5Enemy16initDecisionTreeEvE3$_4NS0_IS4_EEFbvEEEE8allocateB8ue170006Em', symObjAddr: 0x9568, symBinAddr: 0x100017834, symSize: 0x58 }
  - { offsetInCU: 0x1B143, offset: 0x4535E, size: 0x8, addend: 0x0, symName: '__ZNSt3__122__allocator_destructorINS_9allocatorINS_10__function6__funcIZN5Enemy16initDecisionTreeEvE3$_4NS1_IS5_EEFbvEEEEEEC1B8ue170006ERS9_m', symObjAddr: 0x95C0, symBinAddr: 0x10001788C, symSize: 0x3C }
  - { offsetInCU: 0x1B215, offset: 0x45430, size: 0x8, addend: 0x0, symName: '__ZNSt3__110unique_ptrINS_10__function6__funcIZN5Enemy16initDecisionTreeEvE3$_4NS_9allocatorIS4_EEFbvEEENS_22__allocator_destructorINS5_IS8_EEEEEC1B8ue170006ILb1EvEEPS8_NS_16__dependent_typeINS_27__unique_ptr_deleter_sfinaeISB_EEXT_EE20__good_rval_ref_typeE', symObjAddr: 0x95FC, symBinAddr: 0x1000178C8, symSize: 0x3C }
  - { offsetInCU: 0x1B266, offset: 0x45481, size: 0x8, addend: 0x0, symName: '__ZNKSt3__110unique_ptrINS_10__function6__funcIZN5Enemy16initDecisionTreeEvE3$_4NS_9allocatorIS4_EEFbvEEENS_22__allocator_destructorINS5_IS8_EEEEE3getB8ue170006Ev', symObjAddr: 0x9638, symBinAddr: 0x100017904, symSize: 0x28 }
  - { offsetInCU: 0x1B28C, offset: 0x454A7, size: 0x8, addend: 0x0, symName: '__ZNKSt3__110__function12__alloc_funcIZN5Enemy16initDecisionTreeEvE3$_4NS_9allocatorIS3_EEFbvEE8__targetB8ue170006Ev', symObjAddr: 0x9660, symBinAddr: 0x10001792C, symSize: 0x24 }
  - { offsetInCU: 0x1B2B2, offset: 0x454CD, size: 0x8, addend: 0x0, symName: '__ZNSt3__110__function6__funcIZN5Enemy16initDecisionTreeEvE3$_4NS_9allocatorIS3_EEFbvEEC1B8ue170006ERKS3_OS5_', symObjAddr: 0x9684, symBinAddr: 0x100017950, symSize: 0x3C }
  - { offsetInCU: 0x1B2FA, offset: 0x45515, size: 0x8, addend: 0x0, symName: '__ZNSt3__110unique_ptrINS_10__function6__funcIZN5Enemy16initDecisionTreeEvE3$_4NS_9allocatorIS4_EEFbvEEENS_22__allocator_destructorINS5_IS8_EEEEE7releaseB8ue170006Ev', symObjAddr: 0x96C0, symBinAddr: 0x10001798C, symSize: 0x44 }
  - { offsetInCU: 0x1B32F, offset: 0x4554A, size: 0x8, addend: 0x0, symName: '__ZNSt3__110unique_ptrINS_10__function6__funcIZN5Enemy16initDecisionTreeEvE3$_4NS_9allocatorIS4_EEFbvEEENS_22__allocator_destructorINS5_IS8_EEEEED1B8ue170006Ev', symObjAddr: 0x9704, symBinAddr: 0x1000179D0, symSize: 0x2C }
  - { offsetInCU: 0x1B359, offset: 0x45574, size: 0x8, addend: 0x0, symName: '__ZNKSt3__117__compressed_pairIZN5Enemy16initDecisionTreeEvE3$_4NS_9allocatorIS2_EEE6secondB8ue170006Ev', symObjAddr: 0x9730, symBinAddr: 0x1000179FC, symSize: 0x24 }
  - { offsetInCU: 0x1B37F, offset: 0x4559A, size: 0x8, addend: 0x0, symName: '__ZNKSt3__122__compressed_pair_elemINS_9allocatorIZN5Enemy16initDecisionTreeEvE3$_4EELi1ELb1EE5__getB8ue170006Ev', symObjAddr: 0x9754, symBinAddr: 0x100017A20, symSize: 0x14 }
  - { offsetInCU: 0x1B3AF, offset: 0x455CA, size: 0x8, addend: 0x0, symName: '__ZNSt3__116allocator_traitsINS_9allocatorINS_10__function6__funcIZN5Enemy16initDecisionTreeEvE3$_4NS1_IS5_EEFbvEEEEEE8max_sizeB8ue170006IS9_vEEmRKS9_', symObjAddr: 0x9768, symBinAddr: 0x100017A34, symSize: 0x24 }
  - { offsetInCU: 0x1B3DD, offset: 0x455F8, size: 0x8, addend: 0x0, symName: '__ZNKSt3__19allocatorINS_10__function6__funcIZN5Enemy16initDecisionTreeEvE3$_4NS0_IS4_EEFbvEEEE8max_sizeB8ue170006Ev', symObjAddr: 0x978C, symBinAddr: 0x100017A58, symSize: 0x14 }
  - { offsetInCU: 0x1B403, offset: 0x4561E, size: 0x8, addend: 0x0, symName: '__ZNSt3__122__allocator_destructorINS_9allocatorINS_10__function6__funcIZN5Enemy16initDecisionTreeEvE3$_4NS1_IS5_EEFbvEEEEEEC2B8ue170006ERS9_m', symObjAddr: 0x97A0, symBinAddr: 0x100017A6C, symSize: 0x2C }
  - { offsetInCU: 0x1B449, offset: 0x45664, size: 0x8, addend: 0x0, symName: '__ZNSt3__110unique_ptrINS_10__function6__funcIZN5Enemy16initDecisionTreeEvE3$_4NS_9allocatorIS4_EEFbvEEENS_22__allocator_destructorINS5_IS8_EEEEEC2B8ue170006ILb1EvEEPS8_NS_16__dependent_typeINS_27__unique_ptr_deleter_sfinaeISB_EEXT_EE20__good_rval_ref_typeE', symObjAddr: 0x97CC, symBinAddr: 0x100017A98, symSize: 0x48 }
  - { offsetInCU: 0x1B49A, offset: 0x456B5, size: 0x8, addend: 0x0, symName: '__ZNSt3__117__compressed_pairIPNS_10__function6__funcIZN5Enemy16initDecisionTreeEvE3$_4NS_9allocatorIS4_EEFbvEEENS_22__allocator_destructorINS5_IS8_EEEEEC1B8ue170006IRS9_SC_EEOT_OT0_', symObjAddr: 0x9814, symBinAddr: 0x100017AE0, symSize: 0x3C }
  - { offsetInCU: 0x1B4F2, offset: 0x4570D, size: 0x8, addend: 0x0, symName: '__ZNSt3__117__compressed_pairIPNS_10__function6__funcIZN5Enemy16initDecisionTreeEvE3$_4NS_9allocatorIS4_EEFbvEEENS_22__allocator_destructorINS5_IS8_EEEEEC2B8ue170006IRS9_SC_EEOT_OT0_', symObjAddr: 0x9850, symBinAddr: 0x100017B1C, symSize: 0x48 }
  - { offsetInCU: 0x1B54A, offset: 0x45765, size: 0x8, addend: 0x0, symName: '__ZNSt3__122__compressed_pair_elemIPNS_10__function6__funcIZN5Enemy16initDecisionTreeEvE3$_4NS_9allocatorIS4_EEFbvEEELi0ELb0EEC2B8ue170006IRS9_vEEOT_', symObjAddr: 0x9898, symBinAddr: 0x100017B64, symSize: 0x24 }
  - { offsetInCU: 0x1B58C, offset: 0x457A7, size: 0x8, addend: 0x0, symName: '__ZNSt3__122__compressed_pair_elemINS_22__allocator_destructorINS_9allocatorINS_10__function6__funcIZN5Enemy16initDecisionTreeEvE3$_4NS2_IS6_EEFbvEEEEEEELi1ELb0EEC2B8ue170006ISB_vEEOT_', symObjAddr: 0x98BC, symBinAddr: 0x100017B88, symSize: 0x24 }
  - { offsetInCU: 0x1B5CE, offset: 0x457E9, size: 0x8, addend: 0x0, symName: '__ZNKSt3__117__compressed_pairIPNS_10__function6__funcIZN5Enemy16initDecisionTreeEvE3$_4NS_9allocatorIS4_EEFbvEEENS_22__allocator_destructorINS5_IS8_EEEEE5firstB8ue170006Ev', symObjAddr: 0x98E0, symBinAddr: 0x100017BAC, symSize: 0x24 }
  - { offsetInCU: 0x1B5F4, offset: 0x4580F, size: 0x8, addend: 0x0, symName: '__ZNKSt3__122__compressed_pair_elemIPNS_10__function6__funcIZN5Enemy16initDecisionTreeEvE3$_4NS_9allocatorIS4_EEFbvEEELi0ELb0EE5__getB8ue170006Ev', symObjAddr: 0x9904, symBinAddr: 0x100017BD0, symSize: 0x14 }
  - { offsetInCU: 0x1B61A, offset: 0x45835, size: 0x8, addend: 0x0, symName: '__ZNKSt3__117__compressed_pairIZN5Enemy16initDecisionTreeEvE3$_4NS_9allocatorIS2_EEE5firstB8ue170006Ev', symObjAddr: 0x9918, symBinAddr: 0x100017BE4, symSize: 0x24 }
  - { offsetInCU: 0x1B640, offset: 0x4585B, size: 0x8, addend: 0x0, symName: '__ZNKSt3__122__compressed_pair_elemIZN5Enemy16initDecisionTreeEvE3$_4Li0ELb0EE5__getB8ue170006Ev', symObjAddr: 0x993C, symBinAddr: 0x100017C08, symSize: 0x14 }
  - { offsetInCU: 0x1B666, offset: 0x45881, size: 0x8, addend: 0x0, symName: '__ZNSt3__110__function6__funcIZN5Enemy16initDecisionTreeEvE3$_4NS_9allocatorIS3_EEFbvEEC2B8ue170006ERKS3_OS5_', symObjAddr: 0x9950, symBinAddr: 0x100017C1C, symSize: 0x88 }
  - { offsetInCU: 0x1B6AE, offset: 0x458C9, size: 0x8, addend: 0x0, symName: '__ZNSt3__110__function12__alloc_funcIZN5Enemy16initDecisionTreeEvE3$_4NS_9allocatorIS3_EEFbvEEC1B8ue170006ERKS3_OS5_', symObjAddr: 0x99D8, symBinAddr: 0x100017CA4, symSize: 0x3C }
  - { offsetInCU: 0x1B6F4, offset: 0x4590F, size: 0x8, addend: 0x0, symName: '__ZNSt3__110__function12__alloc_funcIZN5Enemy16initDecisionTreeEvE3$_4NS_9allocatorIS3_EEFbvEEC2B8ue170006ERKS3_OS5_', symObjAddr: 0x9A14, symBinAddr: 0x100017CE0, symSize: 0x5C }
  - { offsetInCU: 0x1B73A, offset: 0x45955, size: 0x8, addend: 0x0, symName: '__ZNSt3__117__compressed_pairIZN5Enemy16initDecisionTreeEvE3$_4NS_9allocatorIS2_EEEC1B8ue170006IJRKS2_EJOS4_EEENS_21piecewise_construct_tENS_5tupleIJDpT_EEENSB_IJDpT0_EEE', symObjAddr: 0x9A9C, symBinAddr: 0x100017D68, symSize: 0x3C }
  - { offsetInCU: 0x1B7A4, offset: 0x459BF, size: 0x8, addend: 0x0, symName: '__ZNSt3__15tupleIJRKZN5Enemy16initDecisionTreeEvE3$_4EEC1B8ue170006INS_4_AndELi0EEES4_', symObjAddr: 0x9AD8, symBinAddr: 0x100017DA4, symSize: 0x34 }
  - { offsetInCU: 0x1B7ED, offset: 0x45A08, size: 0x8, addend: 0x0, symName: '__ZNSt3__15tupleIJRKZN5Enemy16initDecisionTreeEvE3$_4EEC2B8ue170006INS_4_AndELi0EEES4_', symObjAddr: 0x9B0C, symBinAddr: 0x100017DD8, symSize: 0x34 }
  - { offsetInCU: 0x1B836, offset: 0x45A51, size: 0x8, addend: 0x0, symName: '__ZNSt3__112__tuple_implINS_15__tuple_indicesIJLm0EEEEJRKZN5Enemy16initDecisionTreeEvE3$_4EEC1B8ue170006IJLm0EEJS6_EJEJEJS6_EEENS1_IJXspT_EEEENS_13__tuple_typesIJDpT0_EEENS1_IJXspT1_EEEENSA_IJDpT2_EEEDpOT3_', symObjAddr: 0x9B40, symBinAddr: 0x100017E0C, symSize: 0x34 }
  - { offsetInCU: 0x1B8C7, offset: 0x45AE2, size: 0x8, addend: 0x0, symName: '__ZNSt3__112__tuple_implINS_15__tuple_indicesIJLm0EEEEJRKZN5Enemy16initDecisionTreeEvE3$_4EEC2B8ue170006IJLm0EEJS6_EJEJEJS6_EEENS1_IJXspT_EEEENS_13__tuple_typesIJDpT0_EEENS1_IJXspT1_EEEENSA_IJDpT2_EEEDpOT3_', symObjAddr: 0x9B74, symBinAddr: 0x100017E40, symSize: 0x34 }
  - { offsetInCU: 0x1B958, offset: 0x45B73, size: 0x8, addend: 0x0, symName: '__ZNSt3__112__tuple_leafILm0ERKZN5Enemy16initDecisionTreeEvE3$_4Lb0EEC2B8ue170006IS4_vEEOT_', symObjAddr: 0x9BA8, symBinAddr: 0x100017E74, symSize: 0x20 }
  - { offsetInCU: 0x1B99B, offset: 0x45BB6, size: 0x8, addend: 0x0, symName: '__ZNSt3__117__compressed_pairIZN5Enemy16initDecisionTreeEvE3$_4NS_9allocatorIS2_EEEC2B8ue170006IJRKS2_EJOS4_EEENS_21piecewise_construct_tENS_5tupleIJDpT_EEENSB_IJDpT0_EEE', symObjAddr: 0x9BC8, symBinAddr: 0x100017E94, symSize: 0x54 }
  - { offsetInCU: 0x1BA05, offset: 0x45C20, size: 0x8, addend: 0x0, symName: '__ZNSt3__122__compressed_pair_elemIZN5Enemy16initDecisionTreeEvE3$_4Li0ELb0EEC2B8ue170006IJRKS2_EJLm0EEEENS_21piecewise_construct_tENS_5tupleIJDpT_EEENS_15__tuple_indicesIJXspT0_EEEE', symObjAddr: 0x9C1C, symBinAddr: 0x100017EE8, symSize: 0x44 }
  - { offsetInCU: 0x1BA6A, offset: 0x45C85, size: 0x8, addend: 0x0, symName: '__ZNSt3__112__tuple_leafILm0ERKZN5Enemy16initDecisionTreeEvE3$_4Lb0EE3getB8ue170006Ev', symObjAddr: 0x9C84, symBinAddr: 0x100017F50, symSize: 0x18 }
  - { offsetInCU: 0x1BA90, offset: 0x45CAB, size: 0x8, addend: 0x0, symName: '__ZNSt3__117__compressed_pairIPNS_10__function6__funcIZN5Enemy16initDecisionTreeEvE3$_4NS_9allocatorIS4_EEFbvEEENS_22__allocator_destructorINS5_IS8_EEEEE5firstB8ue170006Ev', symObjAddr: 0x9C9C, symBinAddr: 0x100017F68, symSize: 0x24 }
  - { offsetInCU: 0x1BAB6, offset: 0x45CD1, size: 0x8, addend: 0x0, symName: '__ZNSt3__122__compressed_pair_elemIPNS_10__function6__funcIZN5Enemy16initDecisionTreeEvE3$_4NS_9allocatorIS4_EEFbvEEELi0ELb0EE5__getB8ue170006Ev', symObjAddr: 0x9CC0, symBinAddr: 0x100017F8C, symSize: 0x14 }
  - { offsetInCU: 0x1BADC, offset: 0x45CF7, size: 0x8, addend: 0x0, symName: '__ZNSt3__110unique_ptrINS_10__function6__funcIZN5Enemy16initDecisionTreeEvE3$_4NS_9allocatorIS4_EEFbvEEENS_22__allocator_destructorINS5_IS8_EEEEED2B8ue170006Ev', symObjAddr: 0x9CD4, symBinAddr: 0x100017FA0, symSize: 0x30 }
  - { offsetInCU: 0x1BB06, offset: 0x45D21, size: 0x8, addend: 0x0, symName: '__ZNSt3__110unique_ptrINS_10__function6__funcIZN5Enemy16initDecisionTreeEvE3$_4NS_9allocatorIS4_EEFbvEEENS_22__allocator_destructorINS5_IS8_EEEEE5resetB8ue170006EPS8_', symObjAddr: 0x9D04, symBinAddr: 0x100017FD0, symSize: 0x78 }
  - { offsetInCU: 0x1BB4A, offset: 0x45D65, size: 0x8, addend: 0x0, symName: '__ZNSt3__117__compressed_pairIPNS_10__function6__funcIZN5Enemy16initDecisionTreeEvE3$_4NS_9allocatorIS4_EEFbvEEENS_22__allocator_destructorINS5_IS8_EEEEE6secondB8ue170006Ev', symObjAddr: 0x9D7C, symBinAddr: 0x100018048, symSize: 0x28 }
  - { offsetInCU: 0x1BB70, offset: 0x45D8B, size: 0x8, addend: 0x0, symName: '__ZNSt3__122__allocator_destructorINS_9allocatorINS_10__function6__funcIZN5Enemy16initDecisionTreeEvE3$_4NS1_IS5_EEFbvEEEEEEclB8ue170006EPS8_', symObjAddr: 0x9DA4, symBinAddr: 0x100018070, symSize: 0x34 }
  - { offsetInCU: 0x1BBA4, offset: 0x45DBF, size: 0x8, addend: 0x0, symName: '__ZNSt3__122__compressed_pair_elemINS_22__allocator_destructorINS_9allocatorINS_10__function6__funcIZN5Enemy16initDecisionTreeEvE3$_4NS2_IS6_EEFbvEEEEEEELi1ELb0EE5__getB8ue170006Ev', symObjAddr: 0x9DD8, symBinAddr: 0x1000180A4, symSize: 0x14 }
  - { offsetInCU: 0x1BBCA, offset: 0x45DE5, size: 0x8, addend: 0x0, symName: '__ZNSt3__116allocator_traitsINS_9allocatorINS_10__function6__funcIZN5Enemy16initDecisionTreeEvE3$_4NS1_IS5_EEFbvEEEEEE10deallocateB8ue170006ERS9_PS8_m', symObjAddr: 0x9DEC, symBinAddr: 0x1000180B8, symSize: 0x34 }
  - { offsetInCU: 0x1BC0C, offset: 0x45E27, size: 0x8, addend: 0x0, symName: '__ZNSt3__19allocatorINS_10__function6__funcIZN5Enemy16initDecisionTreeEvE3$_4NS0_IS4_EEFbvEEEE10deallocateB8ue170006EPS7_m', symObjAddr: 0x9E20, symBinAddr: 0x1000180EC, symSize: 0x40 }
  - { offsetInCU: 0x1BC4E, offset: 0x45E69, size: 0x8, addend: 0x0, symName: '__ZNSt3__110__function6__funcIZN5Enemy16initDecisionTreeEvE3$_4NS_9allocatorIS3_EEFbvEEC1B8ue170006ERKS3_RKS5_', symObjAddr: 0x9E60, symBinAddr: 0x10001812C, symSize: 0x3C }
  - { offsetInCU: 0x1BC96, offset: 0x45EB1, size: 0x8, addend: 0x0, symName: '__ZNSt3__110__function6__funcIZN5Enemy16initDecisionTreeEvE3$_4NS_9allocatorIS3_EEFbvEEC2B8ue170006ERKS3_RKS5_', symObjAddr: 0x9E9C, symBinAddr: 0x100018168, symSize: 0x88 }
  - { offsetInCU: 0x1BCDE, offset: 0x45EF9, size: 0x8, addend: 0x0, symName: '__ZNSt3__110__function12__alloc_funcIZN5Enemy16initDecisionTreeEvE3$_4NS_9allocatorIS3_EEFbvEEC1B8ue170006ERKS3_RKS5_', symObjAddr: 0x9F24, symBinAddr: 0x1000181F0, symSize: 0x3C }
  - { offsetInCU: 0x1BD24, offset: 0x45F3F, size: 0x8, addend: 0x0, symName: '__ZNSt3__110__function12__alloc_funcIZN5Enemy16initDecisionTreeEvE3$_4NS_9allocatorIS3_EEFbvEEC2B8ue170006ERKS3_RKS5_', symObjAddr: 0x9F60, symBinAddr: 0x10001822C, symSize: 0x5C }
  - { offsetInCU: 0x1BD6A, offset: 0x45F85, size: 0x8, addend: 0x0, symName: '__ZNSt3__117__compressed_pairIZN5Enemy16initDecisionTreeEvE3$_4NS_9allocatorIS2_EEEC1B8ue170006IJRKS2_EJRKS4_EEENS_21piecewise_construct_tENS_5tupleIJDpT_EEENSC_IJDpT0_EEE', symObjAddr: 0x9FE8, symBinAddr: 0x1000182B4, symSize: 0x3C }
  - { offsetInCU: 0x1BDD4, offset: 0x45FEF, size: 0x8, addend: 0x0, symName: '__ZNSt3__15tupleIJRKNS_9allocatorIZN5Enemy16initDecisionTreeEvE3$_4EEEEC1B8ue170006INS_4_AndELi0EEES6_', symObjAddr: 0xA024, symBinAddr: 0x1000182F0, symSize: 0x34 }
  - { offsetInCU: 0x1BE1D, offset: 0x46038, size: 0x8, addend: 0x0, symName: '__ZNSt3__15tupleIJRKNS_9allocatorIZN5Enemy16initDecisionTreeEvE3$_4EEEEC2B8ue170006INS_4_AndELi0EEES6_', symObjAddr: 0xA058, symBinAddr: 0x100018324, symSize: 0x34 }
  - { offsetInCU: 0x1BE66, offset: 0x46081, size: 0x8, addend: 0x0, symName: '__ZNSt3__112__tuple_implINS_15__tuple_indicesIJLm0EEEEJRKNS_9allocatorIZN5Enemy16initDecisionTreeEvE3$_4EEEEC1B8ue170006IJLm0EEJS8_EJEJEJS8_EEENS1_IJXspT_EEEENS_13__tuple_typesIJDpT0_EEENS1_IJXspT1_EEEENSC_IJDpT2_EEEDpOT3_', symObjAddr: 0xA08C, symBinAddr: 0x100018358, symSize: 0x34 }
  - { offsetInCU: 0x1BEF7, offset: 0x46112, size: 0x8, addend: 0x0, symName: '__ZNSt3__112__tuple_implINS_15__tuple_indicesIJLm0EEEEJRKNS_9allocatorIZN5Enemy16initDecisionTreeEvE3$_4EEEEC2B8ue170006IJLm0EEJS8_EJEJEJS8_EEENS1_IJXspT_EEEENS_13__tuple_typesIJDpT0_EEENS1_IJXspT1_EEEENSC_IJDpT2_EEEDpOT3_', symObjAddr: 0xA0C0, symBinAddr: 0x10001838C, symSize: 0x34 }
  - { offsetInCU: 0x1BF88, offset: 0x461A3, size: 0x8, addend: 0x0, symName: '__ZNSt3__112__tuple_leafILm0ERKNS_9allocatorIZN5Enemy16initDecisionTreeEvE3$_4EELb0EEC2B8ue170006IS6_vEEOT_', symObjAddr: 0xA0F4, symBinAddr: 0x1000183C0, symSize: 0x20 }
  - { offsetInCU: 0x1BFCB, offset: 0x461E6, size: 0x8, addend: 0x0, symName: '__ZNSt3__117__compressed_pairIZN5Enemy16initDecisionTreeEvE3$_4NS_9allocatorIS2_EEEC2B8ue170006IJRKS2_EJRKS4_EEENS_21piecewise_construct_tENS_5tupleIJDpT_EEENSC_IJDpT0_EEE', symObjAddr: 0xA114, symBinAddr: 0x1000183E0, symSize: 0x54 }
  - { offsetInCU: 0x1C035, offset: 0x46250, size: 0x8, addend: 0x0, symName: '__ZNSt3__122__compressed_pair_elemINS_9allocatorIZN5Enemy16initDecisionTreeEvE3$_4EELi1ELb1EEC2B8ue170006IJRKS4_EJLm0EEEENS_21piecewise_construct_tENS_5tupleIJDpT_EEENS_15__tuple_indicesIJXspT0_EEEE', symObjAddr: 0xA168, symBinAddr: 0x100018434, symSize: 0x38 }
  - { offsetInCU: 0x1C09A, offset: 0x462B5, size: 0x8, addend: 0x0, symName: '__ZNSt3__112__tuple_leafILm0ERKNS_9allocatorIZN5Enemy16initDecisionTreeEvE3$_4EELb0EE3getB8ue170006Ev', symObjAddr: 0xA1C4, symBinAddr: 0x100018490, symSize: 0x18 }
  - { offsetInCU: 0x1C0C0, offset: 0x462DB, size: 0x8, addend: 0x0, symName: '__ZNSt3__110__function12__alloc_funcIZN5Enemy16initDecisionTreeEvE3$_4NS_9allocatorIS3_EEFbvEE7destroyB8ue170006Ev', symObjAddr: 0xA1DC, symBinAddr: 0x1000184A8, symSize: 0x10 }
  - { offsetInCU: 0x1C0E6, offset: 0x46301, size: 0x8, addend: 0x0, symName: '__ZNSt3__110__function12__alloc_funcIZN5Enemy16initDecisionTreeEvE3$_4NS_9allocatorIS3_EEFbvEEclB8ue170006Ev', symObjAddr: 0xA1EC, symBinAddr: 0x1000184B8, symSize: 0x2C }
  - { offsetInCU: 0x1C10C, offset: 0x46327, size: 0x8, addend: 0x0, symName: '__ZNSt3__128__invoke_void_return_wrapperIbLb0EE6__callB8ue170006IJRZN5Enemy16initDecisionTreeEvE3$_4EEEbDpOT_', symObjAddr: 0xA218, symBinAddr: 0x1000184E4, symSize: 0x28 }
  - { offsetInCU: 0x1C13B, offset: 0x46356, size: 0x8, addend: 0x0, symName: '__ZNSt3__117__compressed_pairIZN5Enemy16initDecisionTreeEvE3$_4NS_9allocatorIS2_EEE5firstB8ue170006Ev', symObjAddr: 0xA240, symBinAddr: 0x10001850C, symSize: 0x24 }
  - { offsetInCU: 0x1C166, offset: 0x46381, size: 0x8, addend: 0x0, symName: '__ZZN5Enemy16initDecisionTreeEvENK3$_4clEv', symObjAddr: 0xA28C, symBinAddr: 0x100018558, symSize: 0x2C }
  - { offsetInCU: 0x1C190, offset: 0x463AB, size: 0x8, addend: 0x0, symName: '__ZNSt3__122__compressed_pair_elemIZN5Enemy16initDecisionTreeEvE3$_4Li0ELb0EE5__getB8ue170006Ev', symObjAddr: 0xA2B8, symBinAddr: 0x100018584, symSize: 0x14 }
  - { offsetInCU: 0x1C1B6, offset: 0x463D1, size: 0x8, addend: 0x0, symName: __ZNKSt3__16vectorIP5EnemyNS_9allocatorIS2_EEE6cbeginB8ue170006Ev, symObjAddr: 0xA398, symBinAddr: 0x1000185E0, symSize: 0x2C }
  - { offsetInCU: 0x1C1DC, offset: 0x463F7, size: 0x8, addend: 0x0, symName: __ZNSt3__16vectorIP5EnemyNS_9allocatorIS2_EEE17__destruct_at_endB8ue170006EPS2_, symObjAddr: 0xA3C4, symBinAddr: 0x10001860C, symSize: 0x4C }
  - { offsetInCU: 0x1C220, offset: 0x4643B, size: 0x8, addend: 0x0, symName: __ZNKSt3__111__wrap_iterIPKP5EnemyE4baseB8ue170006Ev, symObjAddr: 0xA450, symBinAddr: 0x100018698, symSize: 0x18 }
  - { offsetInCU: 0x1C246, offset: 0x46461, size: 0x8, addend: 0x0, symName: __ZNKSt3__16vectorIP5EnemyNS_9allocatorIS2_EEE5beginB8ue170006Ev, symObjAddr: 0xA468, symBinAddr: 0x1000186B0, symSize: 0x30 }
  - { offsetInCU: 0x1C26E, offset: 0x46489, size: 0x8, addend: 0x0, symName: __ZNKSt3__16vectorIP5EnemyNS_9allocatorIS2_EEE11__make_iterB8ue170006EPKS2_, symObjAddr: 0xA498, symBinAddr: 0x1000186E0, symSize: 0x30 }
  - { offsetInCU: 0x1C2A3, offset: 0x464BE, size: 0x8, addend: 0x0, symName: __ZNSt3__111__wrap_iterIPKP5EnemyEC1B8ue170006ES4_, symObjAddr: 0xA4C8, symBinAddr: 0x100018710, symSize: 0x34 }
  - { offsetInCU: 0x1C2DB, offset: 0x464F6, size: 0x8, addend: 0x0, symName: __ZNSt3__111__wrap_iterIPKP5EnemyEC2B8ue170006ES4_, symObjAddr: 0xA4FC, symBinAddr: 0x100018744, symSize: 0x20 }
  - { offsetInCU: 0x1C313, offset: 0x4652E, size: 0x8, addend: 0x0, symName: __ZNKSt3__16vectorIP5EnemyNS_9allocatorIS2_EEE17__annotate_shrinkB8ue170006Em, symObjAddr: 0xA5A8, symBinAddr: 0x100018764, symSize: 0xB4 }
  - { offsetInCU: 0x1C36B, offset: 0x46586, size: 0x8, addend: 0x0, symName: __ZNKSt3__114__move_trivialclB8ue170006IP5EnemyS3_Li0EEENS_4pairIPT_PT0_EES6_S6_S8_, symObjAddr: 0xA994, symBinAddr: 0x1000189B4, symSize: 0x48 }
  - { offsetInCU: 0x1C3D8, offset: 0x465F3, size: 0x8, addend: 0x0, symName: __ZNSt3__14pairIPP5EnemyS3_EC1B8ue170006IRS3_S3_LPv0EEEOT_OT0_, symObjAddr: 0xABBC, symBinAddr: 0x100018BDC, symSize: 0x3C }
  - { offsetInCU: 0x1C436, offset: 0x46651, size: 0x8, addend: 0x0, symName: __ZNSt3__14pairIPP5EnemyS3_EC2B8ue170006IRS3_S3_LPv0EEEOT_OT0_, symObjAddr: 0xABF8, symBinAddr: 0x100018C18, symSize: 0x34 }
  - { offsetInCU: 0x1C494, offset: 0x466AF, size: 0x8, addend: 0x0, symName: __ZNSt3__118__unwrap_iter_implIPP5EnemyLb1EE8__unwrapB8ue170006ES3_, symObjAddr: 0xAC2C, symBinAddr: 0x100018C4C, symSize: 0x24 }
  - { offsetInCU: 0x1C4B7, offset: 0x466D2, size: 0x8, addend: 0x0, symName: __ZNSt3__14pairIPP5EnemyS3_EC1B8ue170006IS3_S3_LPv0EEEOT_OT0_, symObjAddr: 0xAC50, symBinAddr: 0x100018C70, symSize: 0x3C }
  - { offsetInCU: 0x1C515, offset: 0x46730, size: 0x8, addend: 0x0, symName: __ZNSt3__14pairIPP5EnemyS3_EC2B8ue170006IS3_S3_LPv0EEEOT_OT0_, symObjAddr: 0xAC8C, symBinAddr: 0x100018CAC, symSize: 0x34 }
  - { offsetInCU: 0x1C573, offset: 0x4678E, size: 0x8, addend: 0x0, symName: __ZNSt3__118__unwrap_iter_implIPP5EnemyLb1EE8__rewrapB8ue170006ES3_S3_, symObjAddr: 0xACC0, symBinAddr: 0x100018CE0, symSize: 0x50 }
  - { offsetInCU: 0x1C5A4, offset: 0x467BF, size: 0x8, addend: 0x0, symName: __ZNSt3__123mersenne_twister_engineIjLm32ELm624ELm397ELm31ELj2567483615ELm11ELj4294967295ELm7ELj2636928640ELm15ELj4022730752ELm18ELj1812433253EEC2B8ue170006Ej, symObjAddr: 0xAD10, symBinAddr: 0x100018D30, symSize: 0x34 }
  - { offsetInCU: 0x1C5DC, offset: 0x467F7, size: 0x8, addend: 0x0, symName: __ZNSt3__123mersenne_twister_engineIjLm32ELm624ELm397ELm31ELj2567483615ELm11ELj4294967295ELm7ELj2636928640ELm15ELj4022730752ELm18ELj1812433253EE4seedEj, symObjAddr: 0xAD44, symBinAddr: 0x100018D64, symSize: 0xC4 }
  - { offsetInCU: 0x1C62F, offset: 0x4684A, size: 0x8, addend: 0x0, symName: __ZNSt3__123mersenne_twister_engineIjLm32ELm624ELm397ELm31ELj2567483615ELm11ELj4294967295ELm7ELj2636928640ELm15ELj4022730752ELm18ELj1812433253EE8__rshiftB8ue170006ILm30EEENS_9enable_ifIXltT_L_ZNS1_3_DtEEEjE4typeEj, symObjAddr: 0xAE08, symBinAddr: 0x100018E28, symSize: 0x18 }
  - { offsetInCU: 0x1C65C, offset: 0x46877, size: 0x8, addend: 0x0, symName: __ZNSt3__125uniform_real_distributionIfEC2B8ue170006Eff, symObjAddr: 0xAE20, symBinAddr: 0x100018E40, symSize: 0x3C }
  - { offsetInCU: 0x1C6A2, offset: 0x468BD, size: 0x8, addend: 0x0, symName: __ZNSt3__125uniform_real_distributionIfE10param_typeC1B8ue170006Eff, symObjAddr: 0xAE5C, symBinAddr: 0x100018E7C, symSize: 0x3C }
  - { offsetInCU: 0x1C6E8, offset: 0x46903, size: 0x8, addend: 0x0, symName: __ZNSt3__125uniform_real_distributionIfE10param_typeC2B8ue170006Eff, symObjAddr: 0xAE98, symBinAddr: 0x100018EB8, symSize: 0x2C }
  - { offsetInCU: 0x1C72E, offset: 0x46949, size: 0x8, addend: 0x0, symName: __ZNSt3__125uniform_real_distributionIfEclINS_23mersenne_twister_engineIjLm32ELm624ELm397ELm31ELj2567483615ELm11ELj4294967295ELm7ELj2636928640ELm15ELj4022730752ELm18ELj1812433253EEEEEfRT_RKNS1_10param_typeE, symObjAddr: 0xAEC4, symBinAddr: 0x100018EE4, symSize: 0x6C }
  - { offsetInCU: 0x1C77A, offset: 0x46995, size: 0x8, addend: 0x0, symName: __ZNKSt3__125uniform_real_distributionIfE10param_type1bB8ue170006Ev, symObjAddr: 0xAF30, symBinAddr: 0x100018F50, symSize: 0x18 }
  - { offsetInCU: 0x1C7A0, offset: 0x469BB, size: 0x8, addend: 0x0, symName: __ZNKSt3__125uniform_real_distributionIfE10param_type1aB8ue170006Ev, symObjAddr: 0xAF48, symBinAddr: 0x100018F68, symSize: 0x18 }
  - { offsetInCU: 0x1C7C6, offset: 0x469E1, size: 0x8, addend: 0x0, symName: __ZNSt3__123mersenne_twister_engineIjLm32ELm624ELm397ELm31ELj2567483615ELm11ELj4294967295ELm7ELj2636928640ELm15ELj4022730752ELm18ELj1812433253EE3maxB8ue170006Ev, symObjAddr: 0xB078, symBinAddr: 0x100019098, symSize: 0x8 }
  - { offsetInCU: 0x1C7DA, offset: 0x469F5, size: 0x8, addend: 0x0, symName: __ZNSt3__123mersenne_twister_engineIjLm32ELm624ELm397ELm31ELj2567483615ELm11ELj4294967295ELm7ELj2636928640ELm15ELj4022730752ELm18ELj1812433253EE3minB8ue170006Ev, symObjAddr: 0xB080, symBinAddr: 0x1000190A0, symSize: 0x8 }
  - { offsetInCU: 0x1C7EE, offset: 0x46A09, size: 0x8, addend: 0x0, symName: __ZNSt3__123mersenne_twister_engineIjLm32ELm624ELm397ELm31ELj2567483615ELm11ELj4294967295ELm7ELj2636928640ELm15ELj4022730752ELm18ELj1812433253EEclEv, symObjAddr: 0xB088, symBinAddr: 0x1000190A8, symSize: 0x14C }
  - { offsetInCU: 0x1C861, offset: 0x46A7C, size: 0x8, addend: 0x0, symName: __ZNSt3__123mersenne_twister_engineIjLm32ELm624ELm397ELm31ELj2567483615ELm11ELj4294967295ELm7ELj2636928640ELm15ELj4022730752ELm18ELj1812433253EE8__rshiftB8ue170006ILm1EEENS_9enable_ifIXltT_L_ZNS1_3_DtEEEjE4typeEj, symObjAddr: 0xB1D4, symBinAddr: 0x1000191F4, symSize: 0x18 }
  - { offsetInCU: 0x1C88E, offset: 0x46AA9, size: 0x8, addend: 0x0, symName: __ZNSt3__123mersenne_twister_engineIjLm32ELm624ELm397ELm31ELj2567483615ELm11ELj4294967295ELm7ELj2636928640ELm15ELj4022730752ELm18ELj1812433253EE8__rshiftB8ue170006ILm11EEENS_9enable_ifIXltT_L_ZNS1_3_DtEEEjE4typeEj, symObjAddr: 0xB1EC, symBinAddr: 0x10001920C, symSize: 0x18 }
  - { offsetInCU: 0x1C8BB, offset: 0x46AD6, size: 0x8, addend: 0x0, symName: __ZNSt3__123mersenne_twister_engineIjLm32ELm624ELm397ELm31ELj2567483615ELm11ELj4294967295ELm7ELj2636928640ELm15ELj4022730752ELm18ELj1812433253EE8__lshiftB8ue170006ILm7EEENS_9enable_ifIXltT_Lm32EEjE4typeEj, symObjAddr: 0xB204, symBinAddr: 0x100019224, symSize: 0x1C }
  - { offsetInCU: 0x1C8E8, offset: 0x46B03, size: 0x8, addend: 0x0, symName: __ZNSt3__123mersenne_twister_engineIjLm32ELm624ELm397ELm31ELj2567483615ELm11ELj4294967295ELm7ELj2636928640ELm15ELj4022730752ELm18ELj1812433253EE8__lshiftB8ue170006ILm15EEENS_9enable_ifIXltT_Lm32EEjE4typeEj, symObjAddr: 0xB220, symBinAddr: 0x100019240, symSize: 0x1C }
  - { offsetInCU: 0x1C915, offset: 0x46B30, size: 0x8, addend: 0x0, symName: __ZNSt3__123mersenne_twister_engineIjLm32ELm624ELm397ELm31ELj2567483615ELm11ELj4294967295ELm7ELj2636928640ELm15ELj4022730752ELm18ELj1812433253EE8__rshiftB8ue170006ILm18EEENS_9enable_ifIXltT_L_ZNS1_3_DtEEEjE4typeEj, symObjAddr: 0xB23C, symBinAddr: 0x10001925C, symSize: 0x18 }
  - { offsetInCU: 0x26, offset: 0x46EC0, size: 0x8, addend: 0x0, symName: __ZN10GameObjectC2ENSt3__112basic_stringIcNS0_11char_traitsIcEENS0_9allocatorIcEEEE8Vector2DfifP12SDL_RendererP11SDL_Surface, symObjAddr: 0x0, symBinAddr: 0x100019274, symSize: 0x1A8 }
  - { offsetInCU: 0x4AF0, offset: 0x4B98A, size: 0x8, addend: 0x0, symName: __ZN10GameObjectC2ENSt3__112basic_stringIcNS0_11char_traitsIcEENS0_9allocatorIcEEEE8Vector2DfifP12SDL_RendererP11SDL_Surface, symObjAddr: 0x0, symBinAddr: 0x100019274, symSize: 0x1A8 }
  - { offsetInCU: 0x4B7F, offset: 0x4BA19, size: 0x8, addend: 0x0, symName: __ZN10GameObjectC1ENSt3__112basic_stringIcNS0_11char_traitsIcEENS0_9allocatorIcEEEE8Vector2DfifP12SDL_RendererP11SDL_Surface, symObjAddr: 0x250, symBinAddr: 0x10001941C, symSize: 0x6C }
  - { offsetInCU: 0x4C0E, offset: 0x4BAA8, size: 0x8, addend: 0x0, symName: __ZN10GameObjectD2Ev, symObjAddr: 0x2BC, symBinAddr: 0x100019488, symSize: 0x30 }
  - { offsetInCU: 0x4C3A, offset: 0x4BAD4, size: 0x8, addend: 0x0, symName: __ZN10GameObjectD1Ev, symObjAddr: 0x2EC, symBinAddr: 0x1000194B8, symSize: 0x2C }
  - { offsetInCU: 0x4C66, offset: 0x4BB00, size: 0x8, addend: 0x0, symName: __ZN10GameObject10applyForceER8Vector2D, symObjAddr: 0x318, symBinAddr: 0x1000194E4, symSize: 0x54 }
  - { offsetInCU: 0x4C9C, offset: 0x4BB36, size: 0x8, addend: 0x0, symName: __ZN8Vector2DdvEf, symObjAddr: 0x36C, symBinAddr: 0x100019538, symSize: 0x80 }
  - { offsetInCU: 0x4CD0, offset: 0x4BB6A, size: 0x8, addend: 0x0, symName: __ZN10GameObject13calculateDragEv, symObjAddr: 0x43C, symBinAddr: 0x1000195B8, symSize: 0xBC }
  - { offsetInCU: 0x4D14, offset: 0x4BBAE, size: 0x8, addend: 0x0, symName: __ZN10GameObject10wrapAroundERfS0_iiii, symObjAddr: 0x604, symBinAddr: 0x100019674, symSize: 0x120 }
  - { offsetInCU: 0x26, offset: 0x4BC5A, size: 0x8, addend: 0x0, symName: __ZN12InputManager12processInputER9SDL_EventR9GameStateP6Playerf, symObjAddr: 0x0, symBinAddr: 0x100019794, symSize: 0x308 }
  - { offsetInCU: 0x3A, offset: 0x4BC6E, size: 0x8, addend: 0x0, symName: __ZN12InputManager2UPE, symObjAddr: 0x16697, symBinAddr: 0x100020000, symSize: 0x0 }
  - { offsetInCU: 0xE75, offset: 0x4CAA9, size: 0x8, addend: 0x0, symName: __ZN12InputManager5RIGHTE, symObjAddr: 0x16698, symBinAddr: 0x100020001, symSize: 0x0 }
  - { offsetInCU: 0xE89, offset: 0x4CABD, size: 0x8, addend: 0x0, symName: __ZN12InputManager4LEFTE, symObjAddr: 0x16699, symBinAddr: 0x100020002, symSize: 0x0 }
  - { offsetInCU: 0xE9D, offset: 0x4CAD1, size: 0x8, addend: 0x0, symName: __ZN12InputManager4DOWNE, symObjAddr: 0x1669A, symBinAddr: 0x100020003, symSize: 0x0 }
  - { offsetInCU: 0x2D47, offset: 0x4E97B, size: 0x8, addend: 0x0, symName: __ZN12InputManager12processInputER9SDL_EventR9GameStateP6Playerf, symObjAddr: 0x0, symBinAddr: 0x100019794, symSize: 0x308 }
  - { offsetInCU: 0x2B85, offset: 0x5155D, size: 0x8, addend: 0x0, symName: __ZN15ResourceManager11loadTextureEP12SDL_RendererRP11SDL_Surface, symObjAddr: 0x0, symBinAddr: 0x100019ABC, symSize: 0x84 }
  - { offsetInCU: 0x2BC6, offset: 0x5159E, size: 0x8, addend: 0x0, symName: __ZN15ResourceManager11loadSurfaceEPKc, symObjAddr: 0x150, symBinAddr: 0x100019B40, symSize: 0x78 }
  - { offsetInCU: 0x26, offset: 0x515F7, size: 0x8, addend: 0x0, symName: _main, symObjAddr: 0x0, symBinAddr: 0x100019BB8, symSize: 0xA8 }
  - { offsetInCU: 0x7E9A, offset: 0x5946B, size: 0x8, addend: 0x0, symName: _main, symObjAddr: 0x0, symBinAddr: 0x100019BB8, symSize: 0xA8 }
...
